---
triple:          'arm64-apple-darwin'
binary-path:     '/Users/ligand/SLAM/leetcode/.vscode/.tmp/out'
relocations:
  - { offsetInCU: 0x654B, offset: 0x654B, size: 0x8, addend: 0x0, symName: __ZNSt3__111__introsortINS_17_ClassicAlgPolicyERNS_6__lessI1XS3_EEPS3_EEvT1_S7_T0_NS_15iterator_traitsIS7_E15difference_typeE, symObjAddr: 0x3B58, symBinAddr: 0x1000066AC, symSize: 0x6B8 }
  - { offsetInCU: 0x66A6, offset: 0x66A6, size: 0x8, addend: 0x0, symName: __ZNSt3__118__insertion_sort_3B7v160006INS_17_ClassicAlgPolicyERNS_6__lessI1XS3_EEPS3_EEvT1_S7_T0_, symObjAddr: 0x4378, symBinAddr: 0x100006ECC, symSize: 0x144 }
  - { offsetInCU: 0x6779, offset: 0x6779, size: 0x8, addend: 0x0, symName: __ZNSt3__111__sift_downB7v160006INS_17_ClassicAlgPolicyERNS_6__lessI1XS3_EEPS3_EEvT1_OT0_NS_15iterator_traitsIS7_E15difference_typeES7_, symObjAddr: 0x4E0C, symBinAddr: 0x100007960, symSize: 0x20C }
  - { offsetInCU: 0x6826, offset: 0x6826, size: 0x8, addend: 0x0, symName: __ZNSt3__117__floyd_sift_downB7v160006INS_17_ClassicAlgPolicyERNS_6__lessI1XS3_EEPS3_EET1_S7_OT0_NS_15iterator_traitsIS7_E15difference_typeE, symObjAddr: 0x519C, symBinAddr: 0x100007CF0, symSize: 0x100 }
  - { offsetInCU: 0x68BE, offset: 0x68BE, size: 0x8, addend: 0x0, symName: __ZNSt3__127__insertion_sort_incompleteIRNS_6__lessI1XS2_EEPS2_EEbT0_S6_T_, symObjAddr: 0x46E8, symBinAddr: 0x10000723C, symSize: 0x310 }
  - { offsetInCU: 0x8B33, offset: 0x8B33, size: 0x8, addend: 0x0, symName: __ZNSt3__124__put_character_sequenceB7v160006IcNS_11char_traitsIcEEEERNS_13basic_ostreamIT_T0_EES7_PKS4_m, symObjAddr: 0xA790, symBinAddr: 0x10000D2E4, symSize: 0x1EC }
  - { offsetInCU: 0xB4E6, offset: 0xB4E6, size: 0x8, addend: 0x0, symName: __ZNSt3__1eqB7v160006IcNS_11char_traitsIcEENS_9allocatorIcEEEEbRKNS_12basic_stringIT_T0_T1_EEPKS6_, symObjAddr: 0x9C, symBinAddr: 0x100002BF0, symSize: 0xAC }
  - { offsetInCU: 0xB758, offset: 0xB758, size: 0x8, addend: 0x0, symName: __ZNSt3__1lsB7v160006INS_11char_traitsIcEEEERNS_13basic_ostreamIcT_EES6_PKc, symObjAddr: 0xB68, symBinAddr: 0x1000036BC, symSize: 0x48 }
  - { offsetInCU: 0xB79E, offset: 0xB79E, size: 0x8, addend: 0x0, symName: __ZNSt3__14endlB7v160006IcNS_11char_traitsIcEEEERNS_13basic_ostreamIT_T0_EES7_, symObjAddr: 0xBDC, symBinAddr: 0x100003730, symSize: 0x58 }
  - { offsetInCU: 0xB7DE, offset: 0xB7DE, size: 0x8, addend: 0x0, symName: __ZNSt3__1neB7v160006ERKNS_16__deque_iteratorIP8TreeNodePS2_RS2_PS3_lLl512EEES8_, symObjAddr: 0x150C, symBinAddr: 0x100004060, symSize: 0x34 }
  - { offsetInCU: 0xB81B, offset: 0xB81B, size: 0x8, addend: 0x0, symName: __ZNSt3__1eqB7v160006ERKNS_16__deque_iteratorIP8TreeNodePS2_RS2_PS3_lLl512EEES8_, symObjAddr: 0x17AC, symBinAddr: 0x100004300, symSize: 0x30 }
  - { offsetInCU: 0xB858, offset: 0xB858, size: 0x8, addend: 0x0, symName: __ZNSt3__119__libcpp_deallocateB7v160006EPvmm, symObjAddr: 0x18B4, symBinAddr: 0x100004408, symSize: 0x30 }
  - { offsetInCU: 0xB8A0, offset: 0xB8A0, size: 0x8, addend: 0x0, symName: __ZNSt3__127__do_deallocate_handle_sizeB7v160006IJEEEvPvmDpT_, symObjAddr: 0x18E4, symBinAddr: 0x100004438, symSize: 0x28 }
  - { offsetInCU: 0xB8DE, offset: 0xB8DE, size: 0x8, addend: 0x0, symName: __ZNSt3__124__libcpp_operator_deleteB7v160006IJPvEEEvDpT_, symObjAddr: 0x190C, symBinAddr: 0x100004460, symSize: 0x24 }
  - { offsetInCU: 0xB913, offset: 0xB913, size: 0x8, addend: 0x0, symName: __ZNSt3__112__to_addressB7v160006IPP8TreeNodeEEPT_S5_, symObjAddr: 0x1B90, symBinAddr: 0x1000046E4, symSize: 0x14 }
  - { offsetInCU: 0xB948, offset: 0xB948, size: 0x8, addend: 0x0, symName: __ZNSt3__14sortB7v160006INS_11__wrap_iterIP1XEEEEvT_S5_, symObjAddr: 0x1E5C, symBinAddr: 0x1000049B0, symSize: 0x3C }
  - { offsetInCU: 0xB98A, offset: 0xB98A, size: 0x8, addend: 0x0, symName: __ZNSt3__119__debug_db_insert_cB7v160006INS_6vectorI1XNS_9allocatorIS2_EEEEEEvPT_, symObjAddr: 0x2004, symBinAddr: 0x100004B58, symSize: 0x10 }
  - { offsetInCU: 0xB9BB, offset: 0xB9BB, size: 0x8, addend: 0x0, symName: __ZNSt3__13minB7v160006ImEERKT_S3_S3_, symObjAddr: 0x23A8, symBinAddr: 0x100004EFC, symSize: 0x2C }
  - { offsetInCU: 0xBBFF, offset: 0xBBFF, size: 0x8, addend: 0x0, symName: __ZNSt3__13minB7v160006ImNS_6__lessImmEEEERKT_S5_S5_T0_, symObjAddr: 0x2434, symBinAddr: 0x100004F88, symSize: 0x54 }
  - { offsetInCU: 0xBC94, offset: 0xBC94, size: 0x8, addend: 0x0, symName: __ZNSt3__120__throw_length_errorB7v160006EPKc, symObjAddr: 0x2510, symBinAddr: 0x100005064, symSize: 0x64 }
  - { offsetInCU: 0xBCBC, offset: 0xBCBC, size: 0x8, addend: 0x0, symName: __ZNSt3__119__allocate_at_leastB7v160006INS_9allocatorI1XEEEENS_19__allocation_resultINS_16allocator_traitsIT_E7pointerEEERS6_m, symObjAddr: 0x273C, symBinAddr: 0x100005290, symSize: 0x40 }
  - { offsetInCU: 0xBCFF, offset: 0xBCFF, size: 0x8, addend: 0x0, symName: __ZNSt3__117__libcpp_allocateB7v160006Emm, symObjAddr: 0x28C0, symBinAddr: 0x100005414, symSize: 0x28 }
  - { offsetInCU: 0xBD3C, offset: 0xBD3C, size: 0x8, addend: 0x0, symName: __ZNSt3__121__libcpp_operator_newB7v160006IJmEEEPvDpT_, symObjAddr: 0x28E8, symBinAddr: 0x10000543C, symSize: 0x24 }
  - { offsetInCU: 0xBD75, offset: 0xBD75, size: 0x8, addend: 0x0, symName: __ZNSt3__142__uninitialized_allocator_move_if_noexceptB7v160006INS_9allocatorI1XEENS_16reverse_iteratorIPS2_EES6_S2_vEET1_RT_T0_SA_S7_, symObjAddr: 0x2A3C, symBinAddr: 0x100005590, symSize: 0x78 }
  - { offsetInCU: 0xBDF2, offset: 0xBDF2, size: 0x8, addend: 0x0, symName: __ZNSt3__14swapB7v160006IP1XEENS_9enable_ifIXaasr21is_move_constructibleIT_EE5valuesr18is_move_assignableIS4_EE5valueEvE4typeERS4_S7_, symObjAddr: 0x2B00, symBinAddr: 0x100005654, symSize: 0x3C }
  - { offsetInCU: 0xBE43, offset: 0xBE43, size: 0x8, addend: 0x0, symName: __ZNSt3__125__debug_db_invalidate_allB7v160006INS_6vectorI1XNS_9allocatorIS2_EEEEEEvPT_, symObjAddr: 0x2C10, symBinAddr: 0x100005764, symSize: 0x10 }
  - { offsetInCU: 0xBE74, offset: 0xBE74, size: 0x8, addend: 0x0, symName: __ZNSt3__112__to_addressB7v160006I1XEEPT_S3_, symObjAddr: 0x2C68, symBinAddr: 0x1000057BC, symSize: 0x14 }
  - { offsetInCU: 0xBEA9, offset: 0xBEA9, size: 0x8, addend: 0x0, symName: __ZNSt3__14moveB7v160006INS_16reverse_iteratorIP1XEES4_EET0_T_S6_S5_, symObjAddr: 0x2C7C, symBinAddr: 0x1000057D0, symSize: 0x78 }
  - { offsetInCU: 0xBF03, offset: 0xBF03, size: 0x8, addend: 0x0, symName: __ZNSt3__16__moveB7v160006INS_17_ClassicAlgPolicyENS_16reverse_iteratorIP1XEES5_S5_EENS_4pairIT0_T2_EES7_T1_S8_, symObjAddr: 0x2CF4, symBinAddr: 0x100005848, symSize: 0x64 }
  - { offsetInCU: 0xBF6F, offset: 0xBF6F, size: 0x8, addend: 0x0, symName: __ZNSt3__123__dispatch_copy_or_moveB7v160006INS_17_ClassicAlgPolicyENS_11__move_loopIS1_EENS_14__move_trivialENS_16reverse_iteratorIP1XEES8_S8_EENS_4pairIT2_T4_EESA_T3_SB_, symObjAddr: 0x2D58, symBinAddr: 0x1000058AC, symSize: 0x64 }
  - { offsetInCU: 0xBFED, offset: 0xBFED, size: 0x8, addend: 0x0, symName: __ZNSt3__121__unwrap_and_dispatchB7v160006INS_10__overloadINS_11__move_loopINS_17_ClassicAlgPolicyEEENS_14__move_trivialEEENS_16reverse_iteratorIP1XEESA_SA_Li0EEENS_4pairIT0_T2_EESC_T1_SD_, symObjAddr: 0x2DBC, symBinAddr: 0x100005910, symSize: 0x12C }
  - { offsetInCU: 0xC07D, offset: 0xC07D, size: 0x8, addend: 0x0, symName: __ZNSt3__114__unwrap_rangeB7v160006INS_16reverse_iteratorIP1XEES4_EENS_4pairIT0_S6_EET_S8_, symObjAddr: 0x2EE8, symBinAddr: 0x100005A3C, symSize: 0x84 }
  - { offsetInCU: 0xC237, offset: 0xC237, size: 0x8, addend: 0x0, symName: __ZNSt3__113__unwrap_iterB7v160006INS_16reverse_iteratorIP1XEENS_18__unwrap_iter_implIS4_Lb0EEELi0EEEDTclsrT0_8__unwrapclsr3stdE7declvalIT_EEEES8_, symObjAddr: 0x300C, symBinAddr: 0x100005B60, symSize: 0x44 }
  - { offsetInCU: 0xC27B, offset: 0xC27B, size: 0x8, addend: 0x0, symName: __ZNSt3__19make_pairB7v160006INS_16reverse_iteratorIP1XEES4_EENS_4pairINS_18__unwrap_ref_decayIT_E4typeENS6_IT0_E4typeEEEOS7_OSA_, symObjAddr: 0x3050, symBinAddr: 0x100005BA4, symSize: 0x38 }
  - { offsetInCU: 0xC2CA, offset: 0xC2CA, size: 0x8, addend: 0x0, symName: __ZNSt3__114__rewrap_rangeB7v160006INS_16reverse_iteratorIP1XEES4_EET_S5_T0_, symObjAddr: 0x3088, symBinAddr: 0x100005BDC, symSize: 0x5C }
  - { offsetInCU: 0xC316, offset: 0xC316, size: 0x8, addend: 0x0, symName: __ZNSt3__113__rewrap_iterB7v160006INS_16reverse_iteratorIP1XEES4_NS_18__unwrap_iter_implIS4_Lb0EEEEET_S7_T0_, symObjAddr: 0x30E4, symBinAddr: 0x100005C38, symSize: 0x74 }
  - { offsetInCU: 0xC36B, offset: 0xC36B, size: 0x8, addend: 0x0, symName: __ZNSt3__1neB7v160006IP1XS2_EEbRKNS_16reverse_iteratorIT_EERKNS3_IT0_EE, symObjAddr: 0x3158, symBinAddr: 0x100005CAC, symSize: 0x48 }
  - { offsetInCU: 0xC51A, offset: 0xC51A, size: 0x8, addend: 0x0, symName: __ZNSt3__13maxB7v160006ImEERKT_S3_S3_, symObjAddr: 0x3904, symBinAddr: 0x100006458, symSize: 0x2C }
  - { offsetInCU: 0xC55D, offset: 0xC55D, size: 0x8, addend: 0x0, symName: __ZNSt3__13maxB7v160006ImNS_6__lessImmEEEERKT_S5_S5_T0_, symObjAddr: 0x3930, symBinAddr: 0x100006484, symSize: 0x54 }
  - { offsetInCU: 0xC5B7, offset: 0xC5B7, size: 0x8, addend: 0x0, symName: __ZNSt3__14sortB7v160006INS_11__wrap_iterIP1XEENS_6__lessIS2_S2_EEEEvT_S7_T0_, symObjAddr: 0x3984, symBinAddr: 0x1000064D8, symSize: 0x40 }
  - { offsetInCU: 0xC611, offset: 0xC611, size: 0x8, addend: 0x0, symName: __ZNSt3__111__sort_implB7v160006INS_17_ClassicAlgPolicyENS_11__wrap_iterIP1XEENS_6__lessIS3_S3_EEEEvT0_S8_RT1_, symObjAddr: 0x39C4, symBinAddr: 0x100006518, symSize: 0x84 }
  - { offsetInCU: 0xC6B8, offset: 0xC6B8, size: 0x8, addend: 0x0, symName: __ZNSt3__123__debug_randomize_rangeB7v160006INS_17_ClassicAlgPolicyENS_11__wrap_iterIP1XEES5_EEvT0_T1_, symObjAddr: 0x3A48, symBinAddr: 0x10000659C, symSize: 0x14 }
  - { offsetInCU: 0xC709, offset: 0xC709, size: 0x8, addend: 0x0, symName: __ZNSt3__16__sortIRNS_6__lessI1XS2_EEPS2_EEvT0_S6_T_, symObjAddr: 0x3A5C, symBinAddr: 0x1000065B0, symSize: 0x68 }
  - { offsetInCU: 0xC799, offset: 0xC799, size: 0x8, addend: 0x0, symName: __ZNSt3__113__unwrap_iterB7v160006INS_11__wrap_iterIP1XEENS_18__unwrap_iter_implIS4_Lb1EEELi0EEEDTclsrT0_8__unwrapclsr3stdE7declvalIT_EEEES8_, symObjAddr: 0x3AC4, symBinAddr: 0x100006618, symSize: 0x2C }
  - { offsetInCU: 0xC7DD, offset: 0xC7DD, size: 0x8, addend: 0x0, symName: __ZNSt3__17__log2iB7v160006IlEET_S1_, symObjAddr: 0x3AF0, symBinAddr: 0x100006644, symSize: 0x54 }
  - { offsetInCU: 0xC882, offset: 0xC882, size: 0x8, addend: 0x0, symName: __ZNSt3__112__libcpp_clzB7v160006Em, symObjAddr: 0x4228, symBinAddr: 0x100006D7C, symSize: 0x1C }
  - { offsetInCU: 0xC8AE, offset: 0xC8AE, size: 0x8, addend: 0x0, symName: __ZNSt3__124__sort3_maybe_branchlessB7v160006INS_17_ClassicAlgPolicyERNS_6__lessI1XS3_EEPS3_EENS_9enable_ifIXntsr21__use_branchless_sortIT0_T1_EE5valueEvE4typeES9_S9_S9_S8_, symObjAddr: 0x42AC, symBinAddr: 0x100006E00, symSize: 0x3C }
  - { offsetInCU: 0xC91F, offset: 0xC91F, size: 0x8, addend: 0x0, symName: __ZNSt3__124__sort4_maybe_branchlessB7v160006INS_17_ClassicAlgPolicyERNS_6__lessI1XS3_EEPS3_EENS_9enable_ifIXntsr21__use_branchless_sortIT0_T1_EE5valueEvE4typeES9_S9_S9_S9_S8_, symObjAddr: 0x42E8, symBinAddr: 0x100006E3C, symSize: 0x44 }
  - { offsetInCU: 0xC9A4, offset: 0xC9A4, size: 0x8, addend: 0x0, symName: __ZNSt3__124__sort5_maybe_branchlessB7v160006INS_17_ClassicAlgPolicyERNS_6__lessI1XS3_EEPS3_EENS_9enable_ifIXntsr21__use_branchless_sortIT0_T1_EE5valueEvE4typeES9_S9_S9_S9_S9_S8_, symObjAddr: 0x432C, symBinAddr: 0x100006E80, symSize: 0x4C }
  - { offsetInCU: 0xCA38, offset: 0xCA38, size: 0x8, addend: 0x0, symName: __ZNSt3__114__partial_sortB7v160006INS_17_ClassicAlgPolicyERNS_6__lessI1XS3_EEPS3_S6_EET1_S7_S7_T2_RT0_, symObjAddr: 0x44BC, symBinAddr: 0x100007010, symSize: 0x94 }
  - { offsetInCU: 0xCAC0, offset: 0xCAC0, size: 0x8, addend: 0x0, symName: __ZNSt3__119__sort5_wrap_policyB7v160006INS_17_ClassicAlgPolicyERNS_6__lessI1XS3_EEPS3_EEjT1_S7_S7_S7_S7_T0_, symObjAddr: 0x4550, symBinAddr: 0x1000070A4, symSize: 0x54 }
  - { offsetInCU: 0xCB66, offset: 0xCB66, size: 0x8, addend: 0x0, symName: __ZNSt3__17__sort3B7v160006INS_17_ClassicAlgPolicyERNS_6__lessI1XS3_EEPS3_EEjT1_S7_S7_T0_, symObjAddr: 0x45A4, symBinAddr: 0x1000070F8, symSize: 0x144 }
  - { offsetInCU: 0xCBE5, offset: 0xCBE5, size: 0x8, addend: 0x0, symName: __ZNSt3__19iter_swapB7v160006IP1XS2_EEvT_T0_, symObjAddr: 0x4AA0, symBinAddr: 0x1000075F4, symSize: 0x2C }
  - { offsetInCU: 0xCC2D, offset: 0xCC2D, size: 0x8, addend: 0x0, symName: __ZNSt3__14swapB7v160006I1XEENS_9enable_ifIXaasr21is_move_constructibleIT_EE5valuesr18is_move_assignableIS3_EE5valueEvE4typeERS3_S6_, symObjAddr: 0x4ACC, symBinAddr: 0x100007620, symSize: 0x3C }
  - { offsetInCU: 0xCC7E, offset: 0xCC7E, size: 0x8, addend: 0x0, symName: __ZNSt3__17__sort4B7v160006INS_17_ClassicAlgPolicyERNS_6__lessI1XS3_EEPS3_EEjT1_S7_S7_S7_T0_, symObjAddr: 0x4B08, symBinAddr: 0x10000765C, symSize: 0xE4 }
  - { offsetInCU: 0xCD0B, offset: 0xCD0B, size: 0x8, addend: 0x0, symName: __ZNSt3__123__debug_randomize_rangeB7v160006INS_17_ClassicAlgPolicyEP1XS3_EEvT0_T1_, symObjAddr: 0x4C30, symBinAddr: 0x100007784, symSize: 0x14 }
  - { offsetInCU: 0xCD5C, offset: 0xCD5C, size: 0x8, addend: 0x0, symName: __ZNSt3__119__partial_sort_implB7v160006INS_17_ClassicAlgPolicyERNS_6__lessI1XS3_EEPS3_S6_EET1_S7_S7_T2_OT0_, symObjAddr: 0x4C44, symBinAddr: 0x100007798, symSize: 0x110 }
  - { offsetInCU: 0xCDF2, offset: 0xCDF2, size: 0x8, addend: 0x0, symName: __ZNSt3__111__make_heapB7v160006INS_17_ClassicAlgPolicyERNS_6__lessI1XS3_EEPS3_EEvT1_S7_OT0_, symObjAddr: 0x4D54, symBinAddr: 0x1000078A8, symSize: 0xB8 }
  - { offsetInCU: 0xCE94, offset: 0xCE94, size: 0x8, addend: 0x0, symName: __ZNSt3__111__sort_heapB7v160006INS_17_ClassicAlgPolicyERNS_6__lessI1XS3_EEPS3_EEvT1_S7_OT0_, symObjAddr: 0x5018, symBinAddr: 0x100007B6C, symSize: 0x90 }
  - { offsetInCU: 0xCF28, offset: 0xCF28, size: 0x8, addend: 0x0, symName: __ZNSt3__110__pop_heapB7v160006INS_17_ClassicAlgPolicyENS_6__lessI1XS3_EEPS3_EEvT1_S6_RT0_NS_15iterator_traitsIS6_E15difference_typeE, symObjAddr: 0x50A8, symBinAddr: 0x100007BFC, symSize: 0xF4 }
  - { offsetInCU: 0xCFD8, offset: 0xCFD8, size: 0x8, addend: 0x0, symName: __ZNSt3__19__sift_upB7v160006INS_17_ClassicAlgPolicyERNS_6__lessI1XS3_EEPS3_EEvT1_S7_OT0_NS_15iterator_traitsIS7_E15difference_typeE, symObjAddr: 0x529C, symBinAddr: 0x100007DF0, symSize: 0x11C }
  - { offsetInCU: 0xD088, offset: 0xD088, size: 0x8, addend: 0x0, symName: __ZNSt3__17__sort5IRNS_6__lessI1XS2_EEPS2_EEjT0_S6_S6_S6_S6_T_, symObjAddr: 0x53B8, symBinAddr: 0x100007F0C, symSize: 0x12C }
  - { offsetInCU: 0xD186, offset: 0xD186, size: 0x8, addend: 0x0, symName: __ZNSt3__112__to_addressB7v160006INS_11__wrap_iterIP1XEEvEENS_5decayIDTclsr19__to_address_helperIT_EE6__callclsr3stdE7declvalIRKS6_EEEEE4typeES8_, symObjAddr: 0x550C, symBinAddr: 0x100008060, symSize: 0x24 }
  - { offsetInCU: 0xD265, offset: 0xD265, size: 0x8, addend: 0x0, symName: __ZNSt3__118__debug_db_erase_cB7v160006INS_6vectorI1XNS_9allocatorIS2_EEEEEEvPT_, symObjAddr: 0x576C, symBinAddr: 0x1000082C0, symSize: 0x10 }
  - { offsetInCU: 0xD296, offset: 0xD296, size: 0x8, addend: 0x0, symName: __ZNSt3__118__constexpr_strlenB7v160006EPKc, symObjAddr: 0x5864, symBinAddr: 0x1000083B8, symSize: 0x24 }
  - { offsetInCU: 0xD2F5, offset: 0xD2F5, size: 0x8, addend: 0x0, symName: __ZNSt3__119__debug_db_insert_cB7v160006INS_6vectorIP8TreeNodeNS_9allocatorIS3_EEEEEEvPT_, symObjAddr: 0x5AD8, symBinAddr: 0x10000862C, symSize: 0x10 }
  - { offsetInCU: 0xD326, offset: 0xD326, size: 0x8, addend: 0x0, symName: __ZNSt3__118__debug_db_erase_cB7v160006INS_6vectorIP8TreeNodeNS_9allocatorIS3_EEEEEEvPT_, symObjAddr: 0x5D9C, symBinAddr: 0x1000088F0, symSize: 0x10 }
  - { offsetInCU: 0xD357, offset: 0xD357, size: 0x8, addend: 0x0, symName: __ZNSt3__112__to_addressB7v160006IP8TreeNodeEEPT_S4_, symObjAddr: 0x5E84, symBinAddr: 0x1000089D8, symSize: 0x14 }
  - { offsetInCU: 0xD38C, offset: 0xD38C, size: 0x8, addend: 0x0, symName: __ZNSt3__119__debug_db_insert_cB7v160006INS_12basic_stringIcNS_11char_traitsIcEENS_9allocatorIcEEEEEEvPT_, symObjAddr: 0x6044, symBinAddr: 0x100008B98, symSize: 0x10 }
  - { offsetInCU: 0xD3BD, offset: 0xD3BD, size: 0x8, addend: 0x0, symName: __ZNSt3__110__str_findB7v160006IcmNS_11char_traitsIcEELm18446744073709551615EEET0_PKT_S3_S6_S3_S3_, symObjAddr: 0x61A0, symBinAddr: 0x100008CF4, symSize: 0xE4 }
  - { offsetInCU: 0xD464, offset: 0xD464, size: 0x8, addend: 0x0, symName: __ZNSt3__118__search_substringB7v160006IcNS_11char_traitsIcEEEEPKT_S5_S5_S5_S5_, symObjAddr: 0x62AC, symBinAddr: 0x100008E00, symSize: 0x154 }
  - { offsetInCU: 0xD4FE, offset: 0xD4FE, size: 0x8, addend: 0x0, symName: __ZNSt3__123__constexpr_char_memchrB7v160006EPKcim, symObjAddr: 0x64DC, symBinAddr: 0x100009030, symSize: 0x34 }
  - { offsetInCU: 0xD546, offset: 0xD546, size: 0x8, addend: 0x0, symName: __ZNSt3__118__constexpr_memcmpB7v160006IcEEiPKT_S3_m, symObjAddr: 0x6510, symBinAddr: 0x100009064, symSize: 0x34 }
  - { offsetInCU: 0xD597, offset: 0xD597, size: 0x8, addend: 0x0, symName: __ZNSt3__112__to_addressB7v160006IKcEEPT_S3_, symObjAddr: 0x6544, symBinAddr: 0x100009098, symSize: 0x14 }
  - { offsetInCU: 0xD5FF, offset: 0xD5FF, size: 0x8, addend: 0x0, symName: __ZNSt3__119__allocate_at_leastB7v160006INS_9allocatorIP8TreeNodeEEEENS_19__allocation_resultINS_16allocator_traitsIT_E7pointerEEERS7_m, symObjAddr: 0x7054, symBinAddr: 0x100009BA8, symSize: 0x40 }
  - { offsetInCU: 0xD642, offset: 0xD642, size: 0x8, addend: 0x0, symName: __ZNSt3__142__uninitialized_allocator_move_if_noexceptB7v160006INS_9allocatorIP8TreeNodeEENS_16reverse_iteratorIPS3_EES7_S3_vEET1_RT_T0_SB_S8_, symObjAddr: 0x7208, symBinAddr: 0x100009D5C, symSize: 0x78 }
  - { offsetInCU: 0xD6BF, offset: 0xD6BF, size: 0x8, addend: 0x0, symName: __ZNSt3__14swapB7v160006IPP8TreeNodeEENS_9enable_ifIXaasr21is_move_constructibleIT_EE5valuesr18is_move_assignableIS5_EE5valueEvE4typeERS5_S8_, symObjAddr: 0x72CC, symBinAddr: 0x100009E20, symSize: 0x3C }
  - { offsetInCU: 0xD710, offset: 0xD710, size: 0x8, addend: 0x0, symName: __ZNSt3__125__debug_db_invalidate_allB7v160006INS_6vectorIP8TreeNodeNS_9allocatorIS3_EEEEEEvPT_, symObjAddr: 0x73B4, symBinAddr: 0x100009F08, symSize: 0x10 }
  - { offsetInCU: 0xD741, offset: 0xD741, size: 0x8, addend: 0x0, symName: __ZNSt3__14moveB7v160006INS_16reverse_iteratorIPP8TreeNodeEES5_EET0_T_S7_S6_, symObjAddr: 0x73C4, symBinAddr: 0x100009F18, symSize: 0x78 }
  - { offsetInCU: 0xD79B, offset: 0xD79B, size: 0x8, addend: 0x0, symName: __ZNSt3__16__moveB7v160006INS_17_ClassicAlgPolicyENS_16reverse_iteratorIPP8TreeNodeEES6_S6_EENS_4pairIT0_T2_EES8_T1_S9_, symObjAddr: 0x743C, symBinAddr: 0x100009F90, symSize: 0x64 }
  - { offsetInCU: 0xD807, offset: 0xD807, size: 0x8, addend: 0x0, symName: __ZNSt3__123__dispatch_copy_or_moveB7v160006INS_17_ClassicAlgPolicyENS_11__move_loopIS1_EENS_14__move_trivialENS_16reverse_iteratorIPP8TreeNodeEES9_S9_EENS_4pairIT2_T4_EESB_T3_SC_, symObjAddr: 0x74A0, symBinAddr: 0x100009FF4, symSize: 0x64 }
  - { offsetInCU: 0xD885, offset: 0xD885, size: 0x8, addend: 0x0, symName: __ZNSt3__121__unwrap_and_dispatchB7v160006INS_10__overloadINS_11__move_loopINS_17_ClassicAlgPolicyEEENS_14__move_trivialEEENS_16reverse_iteratorIPP8TreeNodeEESB_SB_Li0EEENS_4pairIT0_T2_EESD_T1_SE_, symObjAddr: 0x7504, symBinAddr: 0x10000A058, symSize: 0x12C }
  - { offsetInCU: 0xD915, offset: 0xD915, size: 0x8, addend: 0x0, symName: __ZNSt3__114__unwrap_rangeB7v160006INS_16reverse_iteratorIPP8TreeNodeEES5_EENS_4pairIT0_S7_EET_S9_, symObjAddr: 0x7630, symBinAddr: 0x10000A184, symSize: 0x84 }
  - { offsetInCU: 0xDA35, offset: 0xDA35, size: 0x8, addend: 0x0, symName: __ZNSt3__113__unwrap_iterB7v160006INS_16reverse_iteratorIPP8TreeNodeEENS_18__unwrap_iter_implIS5_Lb0EEELi0EEEDTclsrT0_8__unwrapclsr3stdE7declvalIT_EEEES9_, symObjAddr: 0x7754, symBinAddr: 0x10000A2A8, symSize: 0x44 }
  - { offsetInCU: 0xDA79, offset: 0xDA79, size: 0x8, addend: 0x0, symName: __ZNSt3__19make_pairB7v160006INS_16reverse_iteratorIPP8TreeNodeEES5_EENS_4pairINS_18__unwrap_ref_decayIT_E4typeENS7_IT0_E4typeEEEOS8_OSB_, symObjAddr: 0x7798, symBinAddr: 0x10000A2EC, symSize: 0x38 }
  - { offsetInCU: 0xDAC8, offset: 0xDAC8, size: 0x8, addend: 0x0, symName: __ZNSt3__114__rewrap_rangeB7v160006INS_16reverse_iteratorIPP8TreeNodeEES5_EET_S6_T0_, symObjAddr: 0x77D0, symBinAddr: 0x10000A324, symSize: 0x5C }
  - { offsetInCU: 0xDB14, offset: 0xDB14, size: 0x8, addend: 0x0, symName: __ZNSt3__113__rewrap_iterB7v160006INS_16reverse_iteratorIPP8TreeNodeEES5_NS_18__unwrap_iter_implIS5_Lb0EEEEET_S8_T0_, symObjAddr: 0x782C, symBinAddr: 0x10000A380, symSize: 0x74 }
  - { offsetInCU: 0xDB69, offset: 0xDB69, size: 0x8, addend: 0x0, symName: __ZNSt3__1neB7v160006IPP8TreeNodeS3_EEbRKNS_16reverse_iteratorIT_EERKNS4_IT0_EE, symObjAddr: 0x78A0, symBinAddr: 0x10000A3F4, symSize: 0x48 }
  - { offsetInCU: 0xDFC6, offset: 0xDFC6, size: 0x8, addend: 0x0, symName: __ZNSt3__14swapB7v160006IPPP8TreeNodeEENS_9enable_ifIXaasr21is_move_constructibleIT_EE5valuesr18is_move_assignableIS6_EE5valueEvE4typeERS6_S9_, symObjAddr: 0x9118, symBinAddr: 0x10000BC6C, symSize: 0x3C }
  - { offsetInCU: 0xE017, offset: 0xE017, size: 0x8, addend: 0x0, symName: __ZNSt3__14moveB7v160006IPPP8TreeNodeS4_EET0_T_S6_S5_, symObjAddr: 0x91FC, symBinAddr: 0x10000BD50, symSize: 0x40 }
  - { offsetInCU: 0xE08D, offset: 0xE08D, size: 0x8, addend: 0x0, symName: __ZNSt3__16__moveB7v160006INS_17_ClassicAlgPolicyEPPP8TreeNodeS5_S5_EENS_4pairIT0_T2_EES7_T1_S8_, symObjAddr: 0x93A0, symBinAddr: 0x10000BEF4, symSize: 0x44 }
  - { offsetInCU: 0xE0F9, offset: 0xE0F9, size: 0x8, addend: 0x0, symName: __ZNSt3__123__dispatch_copy_or_moveB7v160006INS_17_ClassicAlgPolicyENS_11__move_loopIS1_EENS_14__move_trivialEPPP8TreeNodeS8_S8_EENS_4pairIT2_T4_EESA_T3_SB_, symObjAddr: 0x93E4, symBinAddr: 0x10000BF38, symSize: 0x44 }
  - { offsetInCU: 0xE177, offset: 0xE177, size: 0x8, addend: 0x0, symName: __ZNSt3__121__unwrap_and_dispatchB7v160006INS_10__overloadINS_11__move_loopINS_17_ClassicAlgPolicyEEENS_14__move_trivialEEEPPP8TreeNodeSA_SA_Li0EEENS_4pairIT0_T2_EESC_T1_SD_, symObjAddr: 0x9428, symBinAddr: 0x10000BF7C, symSize: 0xB4 }
  - { offsetInCU: 0xE205, offset: 0xE205, size: 0x8, addend: 0x0, symName: __ZNSt3__114__unwrap_rangeB7v160006IPPP8TreeNodeS4_EENS_4pairIT0_S6_EET_S8_, symObjAddr: 0x94DC, symBinAddr: 0x10000C030, symSize: 0x60 }
  - { offsetInCU: 0xE3C9, offset: 0xE3C9, size: 0x8, addend: 0x0, symName: __ZNSt3__113__unwrap_iterB7v160006IPPP8TreeNodeNS_18__unwrap_iter_implIS4_Lb1EEELi0EEEDTclsrT0_8__unwrapclsr3stdE7declvalIT_EEEES8_, symObjAddr: 0x9584, symBinAddr: 0x10000C0D8, symSize: 0x24 }
  - { offsetInCU: 0xE40D, offset: 0xE40D, size: 0x8, addend: 0x0, symName: __ZNSt3__19make_pairB7v160006IPPP8TreeNodeS4_EENS_4pairINS_18__unwrap_ref_decayIT_E4typeENS6_IT0_E4typeEEEOS7_OSA_, symObjAddr: 0x95A8, symBinAddr: 0x10000C0FC, symSize: 0x38 }
  - { offsetInCU: 0xE45C, offset: 0xE45C, size: 0x8, addend: 0x0, symName: __ZNSt3__114__rewrap_rangeB7v160006IPPP8TreeNodeS4_EET_S5_T0_, symObjAddr: 0x95E0, symBinAddr: 0x10000C134, symSize: 0x2C }
  - { offsetInCU: 0xE4A8, offset: 0xE4A8, size: 0x8, addend: 0x0, symName: __ZNSt3__113__rewrap_iterB7v160006IPPP8TreeNodeS4_NS_18__unwrap_iter_implIS4_Lb1EEEEET_S7_T0_, symObjAddr: 0x960C, symBinAddr: 0x10000C160, symSize: 0x3C }
  - { offsetInCU: 0xE4FD, offset: 0xE4FD, size: 0x8, addend: 0x0, symName: __ZNSt3__119__copy_trivial_implB7v160006IPP8TreeNodeS3_EENS_4pairIPT_PT0_EES6_S6_S8_, symObjAddr: 0x9648, symBinAddr: 0x10000C19C, symSize: 0x84 }
  - { offsetInCU: 0xE565, offset: 0xE565, size: 0x8, addend: 0x0, symName: __ZNSt3__19make_pairB7v160006IRPPP8TreeNodeS4_EENS_4pairINS_18__unwrap_ref_decayIT_E4typeENS7_IT0_E4typeEEEOS8_OSB_, symObjAddr: 0x96CC, symBinAddr: 0x10000C220, symSize: 0x38 }
  - { offsetInCU: 0xE607, offset: 0xE607, size: 0x8, addend: 0x0, symName: __ZNSt3__18distanceB7v160006INS_13move_iteratorIPPP8TreeNodeEEEENS_15iterator_traitsIT_E15difference_typeES8_S8_, symObjAddr: 0x9858, symBinAddr: 0x10000C3AC, symSize: 0x3C }
  - { offsetInCU: 0xE64A, offset: 0xE64A, size: 0x8, addend: 0x0, symName: __ZNSt3__110__distanceB7v160006INS_13move_iteratorIPPP8TreeNodeEEEENS_15iterator_traitsIT_E15difference_typeES8_S8_NS_26random_access_iterator_tagE, symObjAddr: 0x9990, symBinAddr: 0x10000C4E4, symSize: 0x30 }
  - { offsetInCU: 0xE697, offset: 0xE697, size: 0x8, addend: 0x0, symName: __ZNSt3__1miB7v160006IPPP8TreeNodeS4_EEDTmicldtfp_4baseEcldtfp0_4baseEERKNS_13move_iteratorIT_EERKNS6_IT0_EE, symObjAddr: 0x99C0, symBinAddr: 0x10000C514, symSize: 0x48 }
  - { offsetInCU: 0xE6E6, offset: 0xE6E6, size: 0x8, addend: 0x0, symName: __ZNSt3__113move_backwardB7v160006IPPP8TreeNodeS4_EET0_T_S6_S5_, symObjAddr: 0x9B34, symBinAddr: 0x10000C688, symSize: 0x40 }
  - { offsetInCU: 0xE740, offset: 0xE740, size: 0x8, addend: 0x0, symName: __ZNSt3__115__move_backwardB7v160006INS_17_ClassicAlgPolicyEPPP8TreeNodeS5_S5_EENS_4pairIT0_T2_EES7_T1_S8_, symObjAddr: 0x9B74, symBinAddr: 0x10000C6C8, symSize: 0x44 }
  - { offsetInCU: 0xE7AC, offset: 0xE7AC, size: 0x8, addend: 0x0, symName: __ZNSt3__123__dispatch_copy_or_moveB7v160006INS_17_ClassicAlgPolicyENS_20__move_backward_loopIS1_EENS_23__move_backward_trivialEPPP8TreeNodeS8_S8_EENS_4pairIT2_T4_EESA_T3_SB_, symObjAddr: 0x9BB8, symBinAddr: 0x10000C70C, symSize: 0x44 }
  - { offsetInCU: 0xE82A, offset: 0xE82A, size: 0x8, addend: 0x0, symName: __ZNSt3__121__unwrap_and_dispatchB7v160006INS_10__overloadINS_20__move_backward_loopINS_17_ClassicAlgPolicyEEENS_23__move_backward_trivialEEEPPP8TreeNodeSA_SA_Li0EEENS_4pairIT0_T2_EESC_T1_SD_, symObjAddr: 0x9BFC, symBinAddr: 0x10000C750, symSize: 0xB4 }
  - { offsetInCU: 0xE8FE, offset: 0xE8FE, size: 0x8, addend: 0x0, symName: __ZNSt3__128__copy_backward_trivial_implB7v160006IPP8TreeNodeS3_EENS_4pairIPT_PT0_EES6_S6_S8_, symObjAddr: 0x9CF8, symBinAddr: 0x10000C84C, symSize: 0x94 }
  - { offsetInCU: 0xE966, offset: 0xE966, size: 0x8, addend: 0x0, symName: __ZNSt3__19make_pairB7v160006IRPPP8TreeNodeS5_EENS_4pairINS_18__unwrap_ref_decayIT_E4typeENS7_IT0_E4typeEEEOS8_OSB_, symObjAddr: 0x9D8C, symBinAddr: 0x10000C8E0, symSize: 0x38 }
  - { offsetInCU: 0xE9B5, offset: 0xE9B5, size: 0x8, addend: 0x0, symName: __ZNSt3__119__allocate_at_leastB7v160006INS_9allocatorIPP8TreeNodeEEEENS_19__allocation_resultINS_16allocator_traitsIT_E7pointerEEERS8_m, symObjAddr: 0x9F44, symBinAddr: 0x10000CA98, symSize: 0x40 }
  - { offsetInCU: 0xE9F8, offset: 0xE9F8, size: 0x8, addend: 0x0, symName: __ZNSt3__116__pad_and_outputB7v160006IcNS_11char_traitsIcEEEENS_19ostreambuf_iteratorIT_T0_EES6_PKS4_S8_S8_RNS_8ios_baseES4_, symObjAddr: 0xA998, symBinAddr: 0x10000D4EC, symSize: 0x240 }
  - { offsetInCU: 0xEAC7, offset: 0xEAC7, size: 0x8, addend: 0x0, symName: __ZNSt3__19use_facetB7v160006INS_5ctypeIcEEEERKT_RKNS_6localeE, symObjAddr: 0xAF2C, symBinAddr: 0x10000DA80, symSize: 0x2C }
  - { offsetInCU: 0xEF96, offset: 0xEF96, size: 0x8, addend: 0x0, symName: __ZNSt3__122__make_exception_guardB7v160006INS_6vectorIiNS_9allocatorIiEEE16__destroy_vectorEEENS_28__exception_guard_exceptionsIT_EES7_, symObjAddr: 0xB1F4, symBinAddr: 0x10000DD48, symSize: 0x40 }
  - { offsetInCU: 0xEFCB, offset: 0xEFCB, size: 0x8, addend: 0x0, symName: __ZNSt3__119__debug_db_insert_cB7v160006INS_6vectorIiNS_9allocatorIiEEEEEEvPT_, symObjAddr: 0xB268, symBinAddr: 0x10000DDBC, symSize: 0x10 }
  - { offsetInCU: 0xEFFC, offset: 0xEFFC, size: 0x8, addend: 0x0, symName: __ZNSt3__119__allocate_at_leastB7v160006INS_9allocatorIiEEEENS_19__allocation_resultINS_16allocator_traitsIT_E7pointerEEERS5_m, symObjAddr: 0xB604, symBinAddr: 0x10000E158, symSize: 0x40 }
  - { offsetInCU: 0xF03F, offset: 0xF03F, size: 0x8, addend: 0x0, symName: __ZNSt3__112__to_addressB7v160006IiEEPT_S2_, symObjAddr: 0xB928, symBinAddr: 0x10000E47C, symSize: 0x14 }
  - { offsetInCU: 0xF074, offset: 0xF074, size: 0x8, addend: 0x0, symName: __ZNSt3__130__uninitialized_allocator_copyB7v160006INS_9allocatorIiEEiiLPv0EEEPT0_RT_PKS4_S9_S5_, symObjAddr: 0xB9D8, symBinAddr: 0x10000E52C, symSize: 0x38 }
  - { offsetInCU: 0xF0EC, offset: 0xF0EC, size: 0x8, addend: 0x0, symName: __ZNSt3__14copyB7v160006IPKiPiEET0_T_S5_S4_, symObjAddr: 0xBA80, symBinAddr: 0x10000E5D4, symSize: 0x40 }
  - { offsetInCU: 0xF146, offset: 0xF146, size: 0x8, addend: 0x0, symName: __ZNSt3__16__copyB7v160006INS_17_ClassicAlgPolicyEPKiS3_PiEENS_4pairIT0_T2_EES6_T1_S7_, symObjAddr: 0xBAC0, symBinAddr: 0x10000E614, symSize: 0x44 }
  - { offsetInCU: 0xF1B2, offset: 0xF1B2, size: 0x8, addend: 0x0, symName: __ZNSt3__123__dispatch_copy_or_moveB7v160006INS_17_ClassicAlgPolicyENS_11__copy_loopIS1_EENS_14__copy_trivialEPKiS6_PiEENS_4pairIT2_T4_EES9_T3_SA_, symObjAddr: 0xBB04, symBinAddr: 0x10000E658, symSize: 0x44 }
  - { offsetInCU: 0xF230, offset: 0xF230, size: 0x8, addend: 0x0, symName: __ZNSt3__121__unwrap_and_dispatchB7v160006INS_10__overloadINS_11__copy_loopINS_17_ClassicAlgPolicyEEENS_14__copy_trivialEEEPKiS8_PiLi0EEENS_4pairIT0_T2_EESB_T1_SC_, symObjAddr: 0xBB48, symBinAddr: 0x10000E69C, symSize: 0xB4 }
  - { offsetInCU: 0xF2BE, offset: 0xF2BE, size: 0x8, addend: 0x0, symName: __ZNSt3__114__unwrap_rangeB7v160006IPKiS2_EENS_4pairIT0_S4_EET_S6_, symObjAddr: 0xBBFC, symBinAddr: 0x10000E750, symSize: 0x60 }
  - { offsetInCU: 0xF453, offset: 0xF453, size: 0x8, addend: 0x0, symName: __ZNSt3__113__unwrap_iterB7v160006IPiNS_18__unwrap_iter_implIS1_Lb1EEELi0EEEDTclsrT0_8__unwrapclsr3stdE7declvalIT_EEEES5_, symObjAddr: 0xBCA4, symBinAddr: 0x10000E7F8, symSize: 0x24 }
  - { offsetInCU: 0xF497, offset: 0xF497, size: 0x8, addend: 0x0, symName: __ZNSt3__19make_pairB7v160006IPKiPiEENS_4pairINS_18__unwrap_ref_decayIT_E4typeENS5_IT0_E4typeEEEOS6_OS9_, symObjAddr: 0xBCC8, symBinAddr: 0x10000E81C, symSize: 0x38 }
  - { offsetInCU: 0xF4E6, offset: 0xF4E6, size: 0x8, addend: 0x0, symName: __ZNSt3__114__rewrap_rangeB7v160006IPKiS2_EET_S3_T0_, symObjAddr: 0xBD00, symBinAddr: 0x10000E854, symSize: 0x2C }
  - { offsetInCU: 0xF532, offset: 0xF532, size: 0x8, addend: 0x0, symName: __ZNSt3__113__rewrap_iterB7v160006IPiS1_NS_18__unwrap_iter_implIS1_Lb1EEEEET_S4_T0_, symObjAddr: 0xBD2C, symBinAddr: 0x10000E880, symSize: 0x3C }
  - { offsetInCU: 0xF587, offset: 0xF587, size: 0x8, addend: 0x0, symName: __ZNSt3__19make_pairB7v160006IPKiS2_EENS_4pairINS_18__unwrap_ref_decayIT_E4typeENS4_IT0_E4typeEEEOS5_OS8_, symObjAddr: 0xBD68, symBinAddr: 0x10000E8BC, symSize: 0x38 }
  - { offsetInCU: 0xF5D6, offset: 0xF5D6, size: 0x8, addend: 0x0, symName: __ZNSt3__113__unwrap_iterB7v160006IPKiNS_18__unwrap_iter_implIS2_Lb1EEELi0EEEDTclsrT0_8__unwrapclsr3stdE7declvalIT_EEEES6_, symObjAddr: 0xBDA0, symBinAddr: 0x10000E8F4, symSize: 0x24 }
  - { offsetInCU: 0xF741, offset: 0xF741, size: 0x8, addend: 0x0, symName: __ZNSt3__112__to_addressB7v160006IKiEEPT_S3_, symObjAddr: 0xBE58, symBinAddr: 0x10000E9AC, symSize: 0x14 }
  - { offsetInCU: 0xF776, offset: 0xF776, size: 0x8, addend: 0x0, symName: __ZNSt3__119__copy_trivial_implB7v160006IKiiEENS_4pairIPT_PT0_EES4_S4_S6_, symObjAddr: 0xBE6C, symBinAddr: 0x10000E9C0, symSize: 0x84 }
  - { offsetInCU: 0xF7DE, offset: 0xF7DE, size: 0x8, addend: 0x0, symName: __ZNSt3__19make_pairB7v160006IRPKiPiEENS_4pairINS_18__unwrap_ref_decayIT_E4typeENS6_IT0_E4typeEEEOS7_OSA_, symObjAddr: 0xBEF0, symBinAddr: 0x10000EA44, symSize: 0x38 }
  - { offsetInCU: 0xF880, offset: 0xF880, size: 0x8, addend: 0x0, symName: __ZNSt3__113__rewrap_iterB7v160006IPKiS2_NS_18__unwrap_iter_implIS2_Lb1EEEEET_S5_T0_, symObjAddr: 0xC02C, symBinAddr: 0x10000EB80, symSize: 0x3C }
  - { offsetInCU: 0xF8D5, offset: 0xF8D5, size: 0x8, addend: 0x0, symName: __ZNSt3__118__debug_db_erase_cB7v160006INS_6vectorIiNS_9allocatorIiEEEEEEvPT_, symObjAddr: 0xC2CC, symBinAddr: 0x10000EE20, symSize: 0x10 }
  - { offsetInCU: 0xFD94, offset: 0xFD94, size: 0x8, addend: 0x0, symName: __ZSt28__throw_bad_array_new_lengthB7v160006v, symObjAddr: 0x288C, symBinAddr: 0x1000053E0, symSize: 0x34 }
  - { offsetInCU: 0x103DD, offset: 0x103DD, size: 0x8, addend: 0x0, symName: __ZNSt3__16vectorI1XNS_9allocatorIS1_EEE26__swap_out_circular_bufferERNS_14__split_bufferIS1_RS3_EE, symObjAddr: 0x2204, symBinAddr: 0x100004D58, symSize: 0x118 }
  - { offsetInCU: 0x10696, offset: 0x10696, size: 0x8, addend: 0x0, symName: __ZNSt3__16vectorIP8TreeNodeNS_9allocatorIS2_EEE26__swap_out_circular_bufferERNS_14__split_bufferIS2_RS4_EE, symObjAddr: 0x6CEC, symBinAddr: 0x100009840, symSize: 0x118 }
  - { offsetInCU: 0x12B2B, offset: 0x12B2B, size: 0x8, addend: 0x0, symName: __ZN5Utils16str_to_tree_nodeERKNSt3__112basic_stringIcNS0_11char_traitsIcEENS0_9allocatorIcEEEE, symObjAddr: 0x0, symBinAddr: 0x100002B54, symSize: 0x9C }
  - { offsetInCU: 0x12B65, offset: 0x12B65, size: 0x8, addend: 0x0, symName: __ZN5Utils11str_to_treeENSt3__112basic_stringIcNS0_11char_traitsIcEENS0_9allocatorIcEEEE, symObjAddr: 0x17C, symBinAddr: 0x100002CD0, symSize: 0x3A0 }
  - { offsetInCU: 0x12C08, offset: 0x12C08, size: 0x8, addend: 0x0, symName: __ZN5Utils10print_treeEP8TreeNode, symObjAddr: 0x95C, symBinAddr: 0x1000034B0, symSize: 0x20C }
  - { offsetInCU: 0x12C5A, offset: 0x12C5A, size: 0x8, addend: 0x0, symName: __ZN8TreeNodeC1Ei, symObjAddr: 0x148, symBinAddr: 0x100002C9C, symSize: 0x34 }
  - { offsetInCU: 0x12C92, offset: 0x12C92, size: 0x8, addend: 0x0, symName: __ZNSt3__112basic_stringIcNS_11char_traitsIcEENS_9allocatorIcEEEixB7v160006Em, symObjAddr: 0x51C, symBinAddr: 0x100003070, symSize: 0x30 }
  - { offsetInCU: 0x12CC7, offset: 0x12CC7, size: 0x8, addend: 0x0, symName: __ZNSt3__112basic_stringIcNS_11char_traitsIcEENS_9allocatorIcEEE4backB7v160006Ev, symObjAddr: 0x54C, symBinAddr: 0x1000030A0, symSize: 0x48 }
  - { offsetInCU: 0x12CED, offset: 0x12CED, size: 0x8, addend: 0x0, symName: __ZNKSt3__112basic_stringIcNS_11char_traitsIcEENS_9allocatorIcEEE4sizeB7v160006Ev, symObjAddr: 0x594, symBinAddr: 0x1000030E8, symSize: 0x54 }
  - { offsetInCU: 0x12D13, offset: 0x12D13, size: 0x8, addend: 0x0, symName: __ZNSt3__16vectorIP8TreeNodeNS_9allocatorIS2_EEEC1B7v160006Ev, symObjAddr: 0x5E8, symBinAddr: 0x10000313C, symSize: 0x2C }
  - { offsetInCU: 0x12D42, offset: 0x12D42, size: 0x8, addend: 0x0, symName: __ZNSt3__112basic_stringIcNS_11char_traitsIcEENS_9allocatorIcEEEC1B7v160006IDnEEPKc, symObjAddr: 0x614, symBinAddr: 0x100003168, symSize: 0x34 }
  - { offsetInCU: 0x12D80, offset: 0x12D80, size: 0x8, addend: 0x0, symName: __ZNSt3__112basic_stringIcNS_11char_traitsIcEENS_9allocatorIcEEEC1B7v160006Ev, symObjAddr: 0x648, symBinAddr: 0x10000319C, symSize: 0x2C }
  - { offsetInCU: 0x12DAA, offset: 0x12DAA, size: 0x8, addend: 0x0, symName: __ZNKSt3__112basic_stringIcNS_11char_traitsIcEENS_9allocatorIcEEE4findB7v160006ERKS5_m, symObjAddr: 0x674, symBinAddr: 0x1000031C8, symSize: 0x78 }
  - { offsetInCU: 0x12DF0, offset: 0x12DF0, size: 0x8, addend: 0x0, symName: __ZNKSt3__112basic_stringIcNS_11char_traitsIcEENS_9allocatorIcEEE6substrB7v160006Emm, symObjAddr: 0x6EC, symBinAddr: 0x100003240, symSize: 0x68 }
  - { offsetInCU: 0x12E34, offset: 0x12E34, size: 0x8, addend: 0x0, symName: __ZNSt3__112basic_stringIcNS_11char_traitsIcEENS_9allocatorIcEEEaSB7v160006EOS5_, symObjAddr: 0x754, symBinAddr: 0x1000032A8, symSize: 0x34 }
  - { offsetInCU: 0x12E69, offset: 0x12E69, size: 0x8, addend: 0x0, symName: __ZNSt3__16vectorIP8TreeNodeNS_9allocatorIS2_EEE9push_backB7v160006EOS2_, symObjAddr: 0x788, symBinAddr: 0x1000032DC, symSize: 0x6C }
  - { offsetInCU: 0x12EA0, offset: 0x12EA0, size: 0x8, addend: 0x0, symName: __ZNKSt3__112basic_stringIcNS_11char_traitsIcEENS_9allocatorIcEEE6lengthB7v160006Ev, symObjAddr: 0x7F4, symBinAddr: 0x100003348, symSize: 0x24 }
  - { offsetInCU: 0x12F02, offset: 0x12F02, size: 0x8, addend: 0x0, symName: __ZNSt3__15queueIP8TreeNodeNS_5dequeIS2_NS_9allocatorIS2_EEEEEC1B7v160006Ev, symObjAddr: 0x818, symBinAddr: 0x10000336C, symSize: 0x2C }
  - { offsetInCU: 0x12F2C, offset: 0x12F2C, size: 0x8, addend: 0x0, symName: __ZNSt3__15queueIP8TreeNodeNS_5dequeIS2_NS_9allocatorIS2_EEEEE4pushB7v160006ERKS2_, symObjAddr: 0x844, symBinAddr: 0x100003398, symSize: 0x2C }
  - { offsetInCU: 0x12F61, offset: 0x12F61, size: 0x8, addend: 0x0, symName: __ZNSt3__16vectorIP8TreeNodeNS_9allocatorIS2_EEEixB7v160006Em, symObjAddr: 0x870, symBinAddr: 0x1000033C4, symSize: 0x24 }
  - { offsetInCU: 0x12F98, offset: 0x12F98, size: 0x8, addend: 0x0, symName: __ZNKSt3__16vectorIP8TreeNodeNS_9allocatorIS2_EEE4sizeB7v160006Ev, symObjAddr: 0x894, symBinAddr: 0x1000033E8, symSize: 0x28 }
  - { offsetInCU: 0x12FBE, offset: 0x12FBE, size: 0x8, addend: 0x0, symName: __ZNSt3__15queueIP8TreeNodeNS_5dequeIS2_NS_9allocatorIS2_EEEEE5frontB7v160006Ev, symObjAddr: 0x8BC, symBinAddr: 0x100003410, symSize: 0x24 }
  - { offsetInCU: 0x12FE4, offset: 0x12FE4, size: 0x8, addend: 0x0, symName: __ZNSt3__15queueIP8TreeNodeNS_5dequeIS2_NS_9allocatorIS2_EEEEE3popB7v160006Ev, symObjAddr: 0x8E0, symBinAddr: 0x100003434, symSize: 0x24 }
  - { offsetInCU: 0x1300A, offset: 0x1300A, size: 0x8, addend: 0x0, symName: __ZNSt3__15queueIP8TreeNodeNS_5dequeIS2_NS_9allocatorIS2_EEEEED1Ev, symObjAddr: 0x904, symBinAddr: 0x100003458, symSize: 0x2C }
  - { offsetInCU: 0x13037, offset: 0x13037, size: 0x8, addend: 0x0, symName: __ZNSt3__16vectorIP8TreeNodeNS_9allocatorIS2_EEED1B7v160006Ev, symObjAddr: 0x930, symBinAddr: 0x100003484, symSize: 0x2C }
  - { offsetInCU: 0x13061, offset: 0x13061, size: 0x8, addend: 0x0, symName: __ZNSt3__113basic_ostreamIcNS_11char_traitsIcEEElsB7v160006EPFRS3_S4_E, symObjAddr: 0xBB0, symBinAddr: 0x100003704, symSize: 0x2C }
  - { offsetInCU: 0x13095, offset: 0x13095, size: 0x8, addend: 0x0, symName: __ZNSt3__15queueIP8TreeNodeNS_5dequeIS2_NS_9allocatorIS2_EEEEE4pushB7v160006EOS2_, symObjAddr: 0xC34, symBinAddr: 0x100003788, symSize: 0x2C }
  - { offsetInCU: 0x130CA, offset: 0x130CA, size: 0x8, addend: 0x0, symName: __ZNKSt3__15queueIP8TreeNodeNS_5dequeIS2_NS_9allocatorIS2_EEEEE5emptyB7v160006Ev, symObjAddr: 0xC60, symBinAddr: 0x1000037B4, symSize: 0x28 }
  - { offsetInCU: 0x130F0, offset: 0x130F0, size: 0x8, addend: 0x0, symName: _main, symObjAddr: 0xC88, symBinAddr: 0x1000037DC, symSize: 0x114 }
  - { offsetInCU: 0x13143, offset: 0x13143, size: 0x8, addend: 0x0, symName: __ZNSt3__16vectorIiNS_9allocatorIiEEEC1B7v160006ESt16initializer_listIiE, symObjAddr: 0xD9C, symBinAddr: 0x1000038F0, symSize: 0x3C }
  - { offsetInCU: 0x131AD, offset: 0x131AD, size: 0x8, addend: 0x0, symName: __ZN8Solution23containsNearbyDuplicateERNSt3__16vectorIiNS0_9allocatorIiEEEEi, symObjAddr: 0xDD8, symBinAddr: 0x10000392C, symSize: 0x240 }
  - { offsetInCU: 0x13254, offset: 0x13254, size: 0x8, addend: 0x0, symName: __ZNSt3__16vectorIiNS_9allocatorIiEEED1B7v160006Ev, symObjAddr: 0x1018, symBinAddr: 0x100003B6C, symSize: 0x2C }
  - { offsetInCU: 0x1327E, offset: 0x1327E, size: 0x8, addend: 0x0, symName: __ZN8TreeNodeC2Ei, symObjAddr: 0x1044, symBinAddr: 0x100003B98, symSize: 0x28 }
  - { offsetInCU: 0x132B6, offset: 0x132B6, size: 0x8, addend: 0x0, symName: __ZNSt3__15queueIP8TreeNodeNS_5dequeIS2_NS_9allocatorIS2_EEEEED2Ev, symObjAddr: 0x106C, symBinAddr: 0x100003BC0, symSize: 0x2C }
  - { offsetInCU: 0x132E3, offset: 0x132E3, size: 0x8, addend: 0x0, symName: __ZNSt3__15dequeIP8TreeNodeNS_9allocatorIS2_EEED1B7v160006Ev, symObjAddr: 0x1098, symBinAddr: 0x100003BEC, symSize: 0x2C }
  - { offsetInCU: 0x1330D, offset: 0x1330D, size: 0x8, addend: 0x0, symName: __ZNSt3__15dequeIP8TreeNodeNS_9allocatorIS2_EEED2B7v160006Ev, symObjAddr: 0x10C4, symBinAddr: 0x100003C18, symSize: 0x9C }
  - { offsetInCU: 0x13363, offset: 0x13363, size: 0x8, addend: 0x0, symName: __ZNSt3__15dequeIP8TreeNodeNS_9allocatorIS2_EEE5clearEv, symObjAddr: 0x1160, symBinAddr: 0x100003CB4, symSize: 0x180 }
  - { offsetInCU: 0x133BE, offset: 0x133BE, size: 0x8, addend: 0x0, symName: __ZNSt3__114__split_bufferIPP8TreeNodeNS_9allocatorIS3_EEE5beginB7v160006Ev, symObjAddr: 0x12E0, symBinAddr: 0x100003E34, symSize: 0x18 }
  - { offsetInCU: 0x133E4, offset: 0x133E4, size: 0x8, addend: 0x0, symName: __ZNSt3__114__split_bufferIPP8TreeNodeNS_9allocatorIS3_EEE3endB7v160006Ev, symObjAddr: 0x12F8, symBinAddr: 0x100003E4C, symSize: 0x18 }
  - { offsetInCU: 0x1340A, offset: 0x1340A, size: 0x8, addend: 0x0, symName: __ZNSt3__116allocator_traitsINS_9allocatorIP8TreeNodeEEE10deallocateB7v160006ERS4_PS3_m, symObjAddr: 0x1310, symBinAddr: 0x100003E64, symSize: 0x34 }
  - { offsetInCU: 0x1344C, offset: 0x1344C, size: 0x8, addend: 0x0, symName: __ZNSt3__15dequeIP8TreeNodeNS_9allocatorIS2_EEE7__allocB7v160006Ev, symObjAddr: 0x1344, symBinAddr: 0x100003E98, symSize: 0x28 }
  - { offsetInCU: 0x13472, offset: 0x13472, size: 0x8, addend: 0x0, symName: __ZNSt3__114__split_bufferIPP8TreeNodeNS_9allocatorIS3_EEED1Ev, symObjAddr: 0x136C, symBinAddr: 0x100003EC0, symSize: 0x2C }
  - { offsetInCU: 0x1349E, offset: 0x1349E, size: 0x8, addend: 0x0, symName: __ZNSt3__15dequeIP8TreeNodeNS_9allocatorIS2_EEE5beginB7v160006Ev, symObjAddr: 0x1398, symBinAddr: 0x100003EEC, symSize: 0xB8 }
  - { offsetInCU: 0x134D3, offset: 0x134D3, size: 0x8, addend: 0x0, symName: __ZNSt3__15dequeIP8TreeNodeNS_9allocatorIS2_EEE3endB7v160006Ev, symObjAddr: 0x1450, symBinAddr: 0x100003FA4, symSize: 0xBC }
  - { offsetInCU: 0x13517, offset: 0x13517, size: 0x8, addend: 0x0, symName: __ZNSt3__116allocator_traitsINS_9allocatorIP8TreeNodeEEE7destroyB7v160006IS3_vEEvRS4_PT_, symObjAddr: 0x154C, symBinAddr: 0x1000040A0, symSize: 0x2C }
  - { offsetInCU: 0x13554, offset: 0x13554, size: 0x8, addend: 0x0, symName: __ZNKSt3__116__deque_iteratorIP8TreeNodePS2_RS2_PS3_lLl512EEdeB7v160006Ev, symObjAddr: 0x1578, symBinAddr: 0x1000040CC, symSize: 0x18 }
  - { offsetInCU: 0x1357A, offset: 0x1357A, size: 0x8, addend: 0x0, symName: __ZNSt3__116__deque_iteratorIP8TreeNodePS2_RS2_PS3_lLl512EEppB7v160006Ev, symObjAddr: 0x1590, symBinAddr: 0x1000040E4, symSize: 0x70 }
  - { offsetInCU: 0x135A0, offset: 0x135A0, size: 0x8, addend: 0x0, symName: __ZNSt3__15dequeIP8TreeNodeNS_9allocatorIS2_EEE6__sizeB7v160006Ev, symObjAddr: 0x1600, symBinAddr: 0x100004154, symSize: 0x28 }
  - { offsetInCU: 0x135C6, offset: 0x135C6, size: 0x8, addend: 0x0, symName: __ZNKSt3__114__split_bufferIPP8TreeNodeNS_9allocatorIS3_EEE4sizeB7v160006Ev, symObjAddr: 0x1628, symBinAddr: 0x10000417C, symSize: 0x28 }
  - { offsetInCU: 0x135EC, offset: 0x135EC, size: 0x8, addend: 0x0, symName: __ZNSt3__114__split_bufferIPP8TreeNodeNS_9allocatorIS3_EEE5frontB7v160006Ev, symObjAddr: 0x1650, symBinAddr: 0x1000041A4, symSize: 0x18 }
  - { offsetInCU: 0x13612, offset: 0x13612, size: 0x8, addend: 0x0, symName: __ZNSt3__114__split_bufferIPP8TreeNodeNS_9allocatorIS3_EEE9pop_frontB7v160006Ev, symObjAddr: 0x1668, symBinAddr: 0x1000041BC, symSize: 0x2C }
  - { offsetInCU: 0x13638, offset: 0x13638, size: 0x8, addend: 0x0, symName: __ZNKSt3__114__split_bufferIPP8TreeNodeNS_9allocatorIS3_EEE5emptyB7v160006Ev, symObjAddr: 0x1694, symBinAddr: 0x1000041E8, symSize: 0x28 }
  - { offsetInCU: 0x1365E, offset: 0x1365E, size: 0x8, addend: 0x0, symName: __ZNSt3__116__deque_iteratorIP8TreeNodePS2_RS2_PS3_lLl512EEC1B7v160006ES5_S3_, symObjAddr: 0x16BC, symBinAddr: 0x100004210, symSize: 0x3C }
  - { offsetInCU: 0x136A6, offset: 0x136A6, size: 0x8, addend: 0x0, symName: __ZNSt3__116__deque_iteratorIP8TreeNodePS2_RS2_PS3_lLl512EEC2B7v160006ES5_S3_, symObjAddr: 0x16F8, symBinAddr: 0x10000424C, symSize: 0x2C }
  - { offsetInCU: 0x136EE, offset: 0x136EE, size: 0x8, addend: 0x0, symName: __ZNKSt3__15dequeIP8TreeNodeNS_9allocatorIS2_EEE4sizeB7v160006Ev, symObjAddr: 0x1724, symBinAddr: 0x100004278, symSize: 0x28 }
  - { offsetInCU: 0x13714, offset: 0x13714, size: 0x8, addend: 0x0, symName: __ZNKSt3__15dequeIP8TreeNodeNS_9allocatorIS2_EEE6__sizeB7v160006Ev, symObjAddr: 0x174C, symBinAddr: 0x1000042A0, symSize: 0x28 }
  - { offsetInCU: 0x1373A, offset: 0x1373A, size: 0x8, addend: 0x0, symName: __ZNKSt3__117__compressed_pairImNS_9allocatorIP8TreeNodeEEE5firstB7v160006Ev, symObjAddr: 0x1774, symBinAddr: 0x1000042C8, symSize: 0x24 }
  - { offsetInCU: 0x13760, offset: 0x13760, size: 0x8, addend: 0x0, symName: __ZNKSt3__122__compressed_pair_elemImLi0ELb0EE5__getB7v160006Ev, symObjAddr: 0x1798, symBinAddr: 0x1000042EC, symSize: 0x14 }
  - { offsetInCU: 0x13786, offset: 0x13786, size: 0x8, addend: 0x0, symName: __ZNSt3__19allocatorIP8TreeNodeE7destroyB7v160006EPS2_, symObjAddr: 0x17DC, symBinAddr: 0x100004330, symSize: 0x14 }
  - { offsetInCU: 0x137BA, offset: 0x137BA, size: 0x8, addend: 0x0, symName: __ZNSt3__117__compressed_pairImNS_9allocatorIP8TreeNodeEEE5firstB7v160006Ev, symObjAddr: 0x17F0, symBinAddr: 0x100004344, symSize: 0x24 }
  - { offsetInCU: 0x137E0, offset: 0x137E0, size: 0x8, addend: 0x0, symName: __ZNSt3__122__compressed_pair_elemImLi0ELb0EE5__getB7v160006Ev, symObjAddr: 0x1814, symBinAddr: 0x100004368, symSize: 0x14 }
  - { offsetInCU: 0x13806, offset: 0x13806, size: 0x8, addend: 0x0, symName: __ZNSt3__114__split_bufferIPP8TreeNodeNS_9allocatorIS3_EEE19__destruct_at_beginB7v160006EPS3_, symObjAddr: 0x1828, symBinAddr: 0x10000437C, symSize: 0x2C }
  - { offsetInCU: 0x1383A, offset: 0x1383A, size: 0x8, addend: 0x0, symName: __ZNSt3__114__split_bufferIPP8TreeNodeNS_9allocatorIS3_EEE19__destruct_at_beginEPS3_NS_17integral_constantIbLb1EEE, symObjAddr: 0x1854, symBinAddr: 0x1000043A8, symSize: 0x20 }
  - { offsetInCU: 0x1387A, offset: 0x1387A, size: 0x8, addend: 0x0, symName: __ZNSt3__19allocatorIP8TreeNodeE10deallocateB7v160006EPS2_m, symObjAddr: 0x1874, symBinAddr: 0x1000043C8, symSize: 0x40 }
  - { offsetInCU: 0x138BC, offset: 0x138BC, size: 0x8, addend: 0x0, symName: __ZNSt3__117__compressed_pairImNS_9allocatorIP8TreeNodeEEE6secondB7v160006Ev, symObjAddr: 0x1930, symBinAddr: 0x100004484, symSize: 0x24 }
  - { offsetInCU: 0x138E2, offset: 0x138E2, size: 0x8, addend: 0x0, symName: __ZNSt3__122__compressed_pair_elemINS_9allocatorIP8TreeNodeEELi1ELb1EE5__getB7v160006Ev, symObjAddr: 0x1954, symBinAddr: 0x1000044A8, symSize: 0x14 }
  - { offsetInCU: 0x13908, offset: 0x13908, size: 0x8, addend: 0x0, symName: __ZNSt3__114__split_bufferIPP8TreeNodeNS_9allocatorIS3_EEED2Ev, symObjAddr: 0x1968, symBinAddr: 0x1000044BC, symSize: 0x8C }
  - { offsetInCU: 0x13934, offset: 0x13934, size: 0x8, addend: 0x0, symName: __ZNSt3__114__split_bufferIPP8TreeNodeNS_9allocatorIS3_EEE5clearB7v160006Ev, symObjAddr: 0x19F4, symBinAddr: 0x100004548, symSize: 0x28 }
  - { offsetInCU: 0x1395A, offset: 0x1395A, size: 0x8, addend: 0x0, symName: __ZNSt3__116allocator_traitsINS_9allocatorIPP8TreeNodeEEE10deallocateB7v160006ERS5_PS4_m, symObjAddr: 0x1A1C, symBinAddr: 0x100004570, symSize: 0x34 }
  - { offsetInCU: 0x1399C, offset: 0x1399C, size: 0x8, addend: 0x0, symName: __ZNSt3__114__split_bufferIPP8TreeNodeNS_9allocatorIS3_EEE7__allocB7v160006Ev, symObjAddr: 0x1A50, symBinAddr: 0x1000045A4, symSize: 0x28 }
  - { offsetInCU: 0x139C2, offset: 0x139C2, size: 0x8, addend: 0x0, symName: __ZNKSt3__114__split_bufferIPP8TreeNodeNS_9allocatorIS3_EEE8capacityB7v160006Ev, symObjAddr: 0x1A78, symBinAddr: 0x1000045CC, symSize: 0x40 }
  - { offsetInCU: 0x139E8, offset: 0x139E8, size: 0x8, addend: 0x0, symName: __ZNSt3__114__split_bufferIPP8TreeNodeNS_9allocatorIS3_EEE17__destruct_at_endB7v160006EPS3_, symObjAddr: 0x1AB8, symBinAddr: 0x10000460C, symSize: 0x2C }
  - { offsetInCU: 0x13A1C, offset: 0x13A1C, size: 0x8, addend: 0x0, symName: __ZNSt3__114__split_bufferIPP8TreeNodeNS_9allocatorIS3_EEE17__destruct_at_endB7v160006EPS3_NS_17integral_constantIbLb0EEE, symObjAddr: 0x1AE4, symBinAddr: 0x100004638, symSize: 0x80 }
  - { offsetInCU: 0x13A5C, offset: 0x13A5C, size: 0x8, addend: 0x0, symName: __ZNSt3__116allocator_traitsINS_9allocatorIPP8TreeNodeEEE7destroyB7v160006IS4_vEEvRS5_PT_, symObjAddr: 0x1B64, symBinAddr: 0x1000046B8, symSize: 0x2C }
  - { offsetInCU: 0x13A99, offset: 0x13A99, size: 0x8, addend: 0x0, symName: __ZNSt3__19allocatorIPP8TreeNodeE7destroyB7v160006EPS3_, symObjAddr: 0x1BA4, symBinAddr: 0x1000046F8, symSize: 0x14 }
  - { offsetInCU: 0x13ACD, offset: 0x13ACD, size: 0x8, addend: 0x0, symName: __ZNSt3__19allocatorIPP8TreeNodeE10deallocateB7v160006EPS3_m, symObjAddr: 0x1BB8, symBinAddr: 0x10000470C, symSize: 0x40 }
  - { offsetInCU: 0x13B0F, offset: 0x13B0F, size: 0x8, addend: 0x0, symName: __ZNSt3__117__compressed_pairIPPP8TreeNodeNS_9allocatorIS3_EEE6secondB7v160006Ev, symObjAddr: 0x1BF8, symBinAddr: 0x10000474C, symSize: 0x24 }
  - { offsetInCU: 0x13B35, offset: 0x13B35, size: 0x8, addend: 0x0, symName: __ZNSt3__122__compressed_pair_elemINS_9allocatorIPP8TreeNodeEELi1ELb1EE5__getB7v160006Ev, symObjAddr: 0x1C1C, symBinAddr: 0x100004770, symSize: 0x14 }
  - { offsetInCU: 0x13B5B, offset: 0x13B5B, size: 0x8, addend: 0x0, symName: __ZNKSt3__114__split_bufferIPP8TreeNodeNS_9allocatorIS3_EEE9__end_capB7v160006Ev, symObjAddr: 0x1C30, symBinAddr: 0x100004784, symSize: 0x28 }
  - { offsetInCU: 0x13B81, offset: 0x13B81, size: 0x8, addend: 0x0, symName: __ZNKSt3__117__compressed_pairIPPP8TreeNodeNS_9allocatorIS3_EEE5firstB7v160006Ev, symObjAddr: 0x1C58, symBinAddr: 0x1000047AC, symSize: 0x24 }
  - { offsetInCU: 0x13BA7, offset: 0x13BA7, size: 0x8, addend: 0x0, symName: __ZNKSt3__122__compressed_pair_elemIPPP8TreeNodeLi0ELb0EE5__getB7v160006Ev, symObjAddr: 0x1C7C, symBinAddr: 0x1000047D0, symSize: 0x14 }
  - { offsetInCU: 0x13BCD, offset: 0x13BCD, size: 0x8, addend: 0x0, symName: __ZNSt3__16vectorI1XNS_9allocatorIS1_EEEC1B7v160006Ev, symObjAddr: 0x1C90, symBinAddr: 0x1000047E4, symSize: 0x2C }
  - { offsetInCU: 0x13BF7, offset: 0x13BF7, size: 0x8, addend: 0x0, symName: __ZNSt3__16vectorI1XNS_9allocatorIS1_EEE7reserveEm, symObjAddr: 0x1CBC, symBinAddr: 0x100004810, symSize: 0xE8 }
  - { offsetInCU: 0x13C53, offset: 0x13C53, size: 0x8, addend: 0x0, symName: __ZNKSt3__16vectorIiNS_9allocatorIiEEE4sizeB7v160006Ev, symObjAddr: 0x1DA4, symBinAddr: 0x1000048F8, symSize: 0x28 }
  - { offsetInCU: 0x13C79, offset: 0x13C79, size: 0x8, addend: 0x0, symName: __ZNSt3__16vectorIiNS_9allocatorIiEEEixB7v160006Em, symObjAddr: 0x1DCC, symBinAddr: 0x100004920, symSize: 0x24 }
  - { offsetInCU: 0x13CB0, offset: 0x13CB0, size: 0x8, addend: 0x0, symName: __ZNSt3__16vectorI1XNS_9allocatorIS1_EEE9push_backB7v160006ERKS1_, symObjAddr: 0x1DF0, symBinAddr: 0x100004944, symSize: 0x6C }
  - { offsetInCU: 0x13CE7, offset: 0x13CE7, size: 0x8, addend: 0x0, symName: __ZNSt3__16vectorI1XNS_9allocatorIS1_EEE5beginB7v160006Ev, symObjAddr: 0x1E98, symBinAddr: 0x1000049EC, symSize: 0x30 }
  - { offsetInCU: 0x13D0F, offset: 0x13D0F, size: 0x8, addend: 0x0, symName: __ZNSt3__16vectorI1XNS_9allocatorIS1_EEE3endB7v160006Ev, symObjAddr: 0x1EC8, symBinAddr: 0x100004A1C, symSize: 0x30 }
  - { offsetInCU: 0x13D37, offset: 0x13D37, size: 0x8, addend: 0x0, symName: __ZNKSt3__16vectorI1XNS_9allocatorIS1_EEE4sizeB7v160006Ev, symObjAddr: 0x1EF8, symBinAddr: 0x100004A4C, symSize: 0x28 }
  - { offsetInCU: 0x13D5D, offset: 0x13D5D, size: 0x8, addend: 0x0, symName: __ZNSt3__16vectorI1XNS_9allocatorIS1_EEEixB7v160006Em, symObjAddr: 0x1F20, symBinAddr: 0x100004A74, symSize: 0x24 }
  - { offsetInCU: 0x13D94, offset: 0x13D94, size: 0x8, addend: 0x0, symName: __ZNSt3__16vectorI1XNS_9allocatorIS1_EEED1B7v160006Ev, symObjAddr: 0x1F44, symBinAddr: 0x100004A98, symSize: 0x2C }
  - { offsetInCU: 0x13DBE, offset: 0x13DBE, size: 0x8, addend: 0x0, symName: __ZNSt3__16vectorI1XNS_9allocatorIS1_EEEC2B7v160006Ev, symObjAddr: 0x1F70, symBinAddr: 0x100004AC4, symSize: 0x58 }
  - { offsetInCU: 0x13DF2, offset: 0x13DF2, size: 0x8, addend: 0x0, symName: __ZNSt3__117__compressed_pairIP1XNS_9allocatorIS1_EEEC1B7v160006IDnNS_18__default_init_tagEEEOT_OT0_, symObjAddr: 0x1FC8, symBinAddr: 0x100004B1C, symSize: 0x3C }
  - { offsetInCU: 0x13E4A, offset: 0x13E4A, size: 0x8, addend: 0x0, symName: __ZNSt3__117__compressed_pairIP1XNS_9allocatorIS1_EEEC2B7v160006IDnNS_18__default_init_tagEEEOT_OT0_, symObjAddr: 0x2014, symBinAddr: 0x100004B68, symSize: 0x40 }
  - { offsetInCU: 0x13EA2, offset: 0x13EA2, size: 0x8, addend: 0x0, symName: __ZNSt3__122__compressed_pair_elemIP1XLi0ELb0EEC2B7v160006IDnvEEOT_, symObjAddr: 0x2054, symBinAddr: 0x100004BA8, symSize: 0x1C }
  - { offsetInCU: 0x13EE4, offset: 0x13EE4, size: 0x8, addend: 0x0, symName: __ZNSt3__122__compressed_pair_elemINS_9allocatorI1XEELi1ELb1EEC2B7v160006ENS_18__default_init_tagE, symObjAddr: 0x2070, symBinAddr: 0x100004BC4, symSize: 0x2C }
  - { offsetInCU: 0x13F18, offset: 0x13F18, size: 0x8, addend: 0x0, symName: __ZNSt3__19allocatorI1XEC2B7v160006Ev, symObjAddr: 0x209C, symBinAddr: 0x100004BF0, symSize: 0x2C }
  - { offsetInCU: 0x13F42, offset: 0x13F42, size: 0x8, addend: 0x0, symName: __ZNSt3__116__non_trivial_ifILb1ENS_9allocatorI1XEEEC2B7v160006Ev, symObjAddr: 0x20C8, symBinAddr: 0x100004C1C, symSize: 0x14 }
  - { offsetInCU: 0x13F6C, offset: 0x13F6C, size: 0x8, addend: 0x0, symName: __ZNKSt3__16vectorI1XNS_9allocatorIS1_EEE8capacityB7v160006Ev, symObjAddr: 0x20DC, symBinAddr: 0x100004C30, symSize: 0x40 }
  - { offsetInCU: 0x13F92, offset: 0x13F92, size: 0x8, addend: 0x0, symName: __ZNKSt3__16vectorI1XNS_9allocatorIS1_EEE8max_sizeEv, symObjAddr: 0x211C, symBinAddr: 0x100004C70, symSize: 0x60 }
  - { offsetInCU: 0x13FBA, offset: 0x13FBA, size: 0x8, addend: 0x0, symName: __ZNKSt3__16vectorI1XNS_9allocatorIS1_EEE20__throw_length_errorB7v160006Ev, symObjAddr: 0x217C, symBinAddr: 0x100004CD0, symSize: 0x1C }
  - { offsetInCU: 0x13FE0, offset: 0x13FE0, size: 0x8, addend: 0x0, symName: __ZNSt3__16vectorI1XNS_9allocatorIS1_EEE7__allocB7v160006Ev, symObjAddr: 0x2198, symBinAddr: 0x100004CEC, symSize: 0x28 }
  - { offsetInCU: 0x14006, offset: 0x14006, size: 0x8, addend: 0x0, symName: __ZNSt3__114__split_bufferI1XRNS_9allocatorIS1_EEEC1EmmS4_, symObjAddr: 0x21C0, symBinAddr: 0x100004D14, symSize: 0x44 }
  - { offsetInCU: 0x1405C, offset: 0x1405C, size: 0x8, addend: 0x0, symName: __ZNSt3__114__split_bufferI1XRNS_9allocatorIS1_EEED1Ev, symObjAddr: 0x231C, symBinAddr: 0x100004E70, symSize: 0x2C }
  - { offsetInCU: 0x14088, offset: 0x14088, size: 0x8, addend: 0x0, symName: __ZNKSt3__16vectorI1XNS_9allocatorIS1_EEE9__end_capB7v160006Ev, symObjAddr: 0x2348, symBinAddr: 0x100004E9C, symSize: 0x28 }
  - { offsetInCU: 0x140AE, offset: 0x140AE, size: 0x8, addend: 0x0, symName: __ZNKSt3__117__compressed_pairIP1XNS_9allocatorIS1_EEE5firstB7v160006Ev, symObjAddr: 0x2370, symBinAddr: 0x100004EC4, symSize: 0x24 }
  - { offsetInCU: 0x140D4, offset: 0x140D4, size: 0x8, addend: 0x0, symName: __ZNKSt3__122__compressed_pair_elemIP1XLi0ELb0EE5__getB7v160006Ev, symObjAddr: 0x2394, symBinAddr: 0x100004EE8, symSize: 0x14 }
  - { offsetInCU: 0x14104, offset: 0x14104, size: 0x8, addend: 0x0, symName: __ZNSt3__116allocator_traitsINS_9allocatorI1XEEE8max_sizeB7v160006IS3_vEEmRKS3_, symObjAddr: 0x23D4, symBinAddr: 0x100004F28, symSize: 0x24 }
  - { offsetInCU: 0x14132, offset: 0x14132, size: 0x8, addend: 0x0, symName: __ZNKSt3__16vectorI1XNS_9allocatorIS1_EEE7__allocB7v160006Ev, symObjAddr: 0x23F8, symBinAddr: 0x100004F4C, symSize: 0x28 }
  - { offsetInCU: 0x14158, offset: 0x14158, size: 0x8, addend: 0x0, symName: __ZNSt3__114numeric_limitsIlE3maxB7v160006Ev, symObjAddr: 0x2420, symBinAddr: 0x100004F74, symSize: 0x14 }
  - { offsetInCU: 0x14176, offset: 0x14176, size: 0x8, addend: 0x0, symName: __ZNKSt3__16__lessImmEclB7v160006ERKmS3_, symObjAddr: 0x2488, symBinAddr: 0x100004FDC, symSize: 0x34 }
  - { offsetInCU: 0x141B8, offset: 0x141B8, size: 0x8, addend: 0x0, symName: __ZNKSt3__19allocatorI1XE8max_sizeB7v160006Ev, symObjAddr: 0x24BC, symBinAddr: 0x100005010, symSize: 0x14 }
  - { offsetInCU: 0x141DE, offset: 0x141DE, size: 0x8, addend: 0x0, symName: __ZNKSt3__117__compressed_pairIP1XNS_9allocatorIS1_EEE6secondB7v160006Ev, symObjAddr: 0x24D0, symBinAddr: 0x100005024, symSize: 0x24 }
  - { offsetInCU: 0x14204, offset: 0x14204, size: 0x8, addend: 0x0, symName: __ZNKSt3__122__compressed_pair_elemINS_9allocatorI1XEELi1ELb1EE5__getB7v160006Ev, symObjAddr: 0x24F4, symBinAddr: 0x100005048, symSize: 0x14 }
  - { offsetInCU: 0x1422A, offset: 0x1422A, size: 0x8, addend: 0x0, symName: __ZNSt3__123__libcpp_numeric_limitsIlLb1EE3maxB7v160006Ev, symObjAddr: 0x2508, symBinAddr: 0x10000505C, symSize: 0x8 }
  - { offsetInCU: 0x1423E, offset: 0x1423E, size: 0x8, addend: 0x0, symName: __ZNSt12length_errorC1B7v160006EPKc, symObjAddr: 0x2574, symBinAddr: 0x1000050C8, symSize: 0x34 }
  - { offsetInCU: 0x14276, offset: 0x14276, size: 0x8, addend: 0x0, symName: __ZNSt12length_errorC2B7v160006EPKc, symObjAddr: 0x25A8, symBinAddr: 0x1000050FC, symSize: 0x4C }
  - { offsetInCU: 0x142AE, offset: 0x142AE, size: 0x8, addend: 0x0, symName: __ZNSt3__117__compressed_pairIP1XNS_9allocatorIS1_EEE6secondB7v160006Ev, symObjAddr: 0x25F4, symBinAddr: 0x100005148, symSize: 0x24 }
  - { offsetInCU: 0x142D4, offset: 0x142D4, size: 0x8, addend: 0x0, symName: __ZNSt3__122__compressed_pair_elemINS_9allocatorI1XEELi1ELb1EE5__getB7v160006Ev, symObjAddr: 0x2618, symBinAddr: 0x10000516C, symSize: 0x14 }
  - { offsetInCU: 0x142FA, offset: 0x142FA, size: 0x8, addend: 0x0, symName: __ZNSt3__114__split_bufferI1XRNS_9allocatorIS1_EEEC2EmmS4_, symObjAddr: 0x262C, symBinAddr: 0x100005180, symSize: 0xD4 }
  - { offsetInCU: 0x1436D, offset: 0x1436D, size: 0x8, addend: 0x0, symName: __ZNSt3__117__compressed_pairIP1XRNS_9allocatorIS1_EEEC1B7v160006IDnS5_EEOT_OT0_, symObjAddr: 0x2700, symBinAddr: 0x100005254, symSize: 0x3C }
  - { offsetInCU: 0x143C5, offset: 0x143C5, size: 0x8, addend: 0x0, symName: __ZNSt3__114__split_bufferI1XRNS_9allocatorIS1_EEE7__allocB7v160006Ev, symObjAddr: 0x277C, symBinAddr: 0x1000052D0, symSize: 0x28 }
  - { offsetInCU: 0x143EB, offset: 0x143EB, size: 0x8, addend: 0x0, symName: __ZNSt3__114__split_bufferI1XRNS_9allocatorIS1_EEE9__end_capB7v160006Ev, symObjAddr: 0x27A4, symBinAddr: 0x1000052F8, symSize: 0x28 }
  - { offsetInCU: 0x14411, offset: 0x14411, size: 0x8, addend: 0x0, symName: __ZNSt3__117__compressed_pairIP1XRNS_9allocatorIS1_EEEC2B7v160006IDnS5_EEOT_OT0_, symObjAddr: 0x27CC, symBinAddr: 0x100005320, symSize: 0x48 }
  - { offsetInCU: 0x14469, offset: 0x14469, size: 0x8, addend: 0x0, symName: __ZNSt3__122__compressed_pair_elemIRNS_9allocatorI1XEELi1ELb0EEC2B7v160006IS4_vEEOT_, symObjAddr: 0x2814, symBinAddr: 0x100005368, symSize: 0x20 }
  - { offsetInCU: 0x144AB, offset: 0x144AB, size: 0x8, addend: 0x0, symName: __ZNSt3__19allocatorI1XE8allocateB7v160006Em, symObjAddr: 0x2834, symBinAddr: 0x100005388, symSize: 0x58 }
  - { offsetInCU: 0x144DF, offset: 0x144DF, size: 0x8, addend: 0x0, symName: __ZNSt3__117__compressed_pairIP1XRNS_9allocatorIS1_EEE6secondB7v160006Ev, symObjAddr: 0x290C, symBinAddr: 0x100005460, symSize: 0x28 }
  - { offsetInCU: 0x14505, offset: 0x14505, size: 0x8, addend: 0x0, symName: __ZNSt3__122__compressed_pair_elemIRNS_9allocatorI1XEELi1ELb0EE5__getB7v160006Ev, symObjAddr: 0x2934, symBinAddr: 0x100005488, symSize: 0x18 }
  - { offsetInCU: 0x1452B, offset: 0x1452B, size: 0x8, addend: 0x0, symName: __ZNSt3__117__compressed_pairIP1XRNS_9allocatorIS1_EEE5firstB7v160006Ev, symObjAddr: 0x294C, symBinAddr: 0x1000054A0, symSize: 0x24 }
  - { offsetInCU: 0x14551, offset: 0x14551, size: 0x8, addend: 0x0, symName: __ZNSt3__122__compressed_pair_elemIP1XLi0ELb0EE5__getB7v160006Ev, symObjAddr: 0x2970, symBinAddr: 0x1000054C4, symSize: 0x14 }
  - { offsetInCU: 0x14577, offset: 0x14577, size: 0x8, addend: 0x0, symName: __ZNKSt3__16vectorI1XNS_9allocatorIS1_EEE17__annotate_deleteB7v160006Ev, symObjAddr: 0x2984, symBinAddr: 0x1000054D8, symSize: 0xB8 }
  - { offsetInCU: 0x1459D, offset: 0x1459D, size: 0x8, addend: 0x0, symName: __ZNSt3__116reverse_iteratorIP1XEC1B7v160006ES2_, symObjAddr: 0x2AB4, symBinAddr: 0x100005608, symSize: 0x34 }
  - { offsetInCU: 0x145D5, offset: 0x145D5, size: 0x8, addend: 0x0, symName: __ZNKSt3__116reverse_iteratorIP1XE4baseB7v160006Ev, symObjAddr: 0x2AE8, symBinAddr: 0x10000563C, symSize: 0x18 }
  - { offsetInCU: 0x145FB, offset: 0x145FB, size: 0x8, addend: 0x0, symName: __ZNSt3__16vectorI1XNS_9allocatorIS1_EEE9__end_capB7v160006Ev, symObjAddr: 0x2B3C, symBinAddr: 0x100005690, symSize: 0x28 }
  - { offsetInCU: 0x14621, offset: 0x14621, size: 0x8, addend: 0x0, symName: __ZNKSt3__16vectorI1XNS_9allocatorIS1_EEE14__annotate_newB7v160006Em, symObjAddr: 0x2B64, symBinAddr: 0x1000056B8, symSize: 0xAC }
  - { offsetInCU: 0x14656, offset: 0x14656, size: 0x8, addend: 0x0, symName: __ZNKSt3__16vectorI1XNS_9allocatorIS1_EEE31__annotate_contiguous_containerB7v160006EPKvS6_S6_S6_, symObjAddr: 0x2C20, symBinAddr: 0x100005774, symSize: 0x20 }
  - { offsetInCU: 0x146A8, offset: 0x146A8, size: 0x8, addend: 0x0, symName: __ZNKSt3__16vectorI1XNS_9allocatorIS1_EEE4dataB7v160006Ev, symObjAddr: 0x2C40, symBinAddr: 0x100005794, symSize: 0x28 }
  - { offsetInCU: 0x146F1, offset: 0x146F1, size: 0x8, addend: 0x0, symName: __ZNKSt3__111__move_loopINS_17_ClassicAlgPolicyEEclB7v160006INS_16reverse_iteratorIP1XEES7_S7_EENS_4pairIT_T1_EES9_T0_SA_, symObjAddr: 0x2F6C, symBinAddr: 0x100005AC0, symSize: 0xA0 }
  - { offsetInCU: 0x14761, offset: 0x14761, size: 0x8, addend: 0x0, symName: __ZNSt3__18_IterOpsINS_17_ClassicAlgPolicyEE11__iter_moveB7v160006IRNS_16reverse_iteratorIP1XEEEENS_9enable_ifIXsr12is_referenceIDTdeclsr3stdE7declvalIRT_EEEEE5valueEDTclsr3stdE4movedeclsr3stdE7declvalISB_EEEEE4typeEOSA_, symObjAddr: 0x31A0, symBinAddr: 0x100005CF4, symSize: 0x28 }
  - { offsetInCU: 0x1478D, offset: 0x1478D, size: 0x8, addend: 0x0, symName: __ZNKSt3__116reverse_iteratorIP1XEdeB7v160006Ev, symObjAddr: 0x31C8, symBinAddr: 0x100005D1C, symSize: 0x28 }
  - { offsetInCU: 0x147C1, offset: 0x147C1, size: 0x8, addend: 0x0, symName: __ZNSt3__116reverse_iteratorIP1XEppB7v160006Ev, symObjAddr: 0x31F0, symBinAddr: 0x100005D44, symSize: 0x20 }
  - { offsetInCU: 0x147E7, offset: 0x147E7, size: 0x8, addend: 0x0, symName: __ZNSt3__18_IterOpsINS_17_ClassicAlgPolicyEE25__validate_iter_referenceB7v160006IRNS_16reverse_iteratorIP1XEEEEvv, symObjAddr: 0x3210, symBinAddr: 0x100005D64, symSize: 0x4 }
  - { offsetInCU: 0x14805, offset: 0x14805, size: 0x8, addend: 0x0, symName: __ZNSt3__118__unwrap_iter_implINS_16reverse_iteratorIP1XEELb0EE8__unwrapB7v160006ES4_, symObjAddr: 0x3214, symBinAddr: 0x100005D68, symSize: 0x24 }
  - { offsetInCU: 0x1482D, offset: 0x1482D, size: 0x8, addend: 0x0, symName: __ZNSt3__14pairINS_16reverse_iteratorIP1XEES4_EC1B7v160006IS4_S4_LPv0EEEOT_OT0_, symObjAddr: 0x3238, symBinAddr: 0x100005D8C, symSize: 0x3C }
  - { offsetInCU: 0x1488B, offset: 0x1488B, size: 0x8, addend: 0x0, symName: __ZNSt3__14pairINS_16reverse_iteratorIP1XEES4_EC2B7v160006IS4_S4_LPv0EEEOT_OT0_, symObjAddr: 0x3274, symBinAddr: 0x100005DC8, symSize: 0x34 }
  - { offsetInCU: 0x148E9, offset: 0x148E9, size: 0x8, addend: 0x0, symName: __ZNSt3__118__unwrap_iter_implINS_16reverse_iteratorIP1XEELb0EE8__rewrapB7v160006ES4_S4_, symObjAddr: 0x32A8, symBinAddr: 0x100005DFC, symSize: 0x2C }
  - { offsetInCU: 0x14916, offset: 0x14916, size: 0x8, addend: 0x0, symName: __ZNSt3__116reverse_iteratorIP1XEC2B7v160006ES2_, symObjAddr: 0x32D4, symBinAddr: 0x100005E28, symSize: 0x28 }
  - { offsetInCU: 0x1494E, offset: 0x1494E, size: 0x8, addend: 0x0, symName: __ZNSt3__117__compressed_pairIP1XNS_9allocatorIS1_EEE5firstB7v160006Ev, symObjAddr: 0x32FC, symBinAddr: 0x100005E50, symSize: 0x24 }
  - { offsetInCU: 0x14974, offset: 0x14974, size: 0x8, addend: 0x0, symName: __ZNSt3__114__split_bufferI1XRNS_9allocatorIS1_EEED2Ev, symObjAddr: 0x3320, symBinAddr: 0x100005E74, symSize: 0x8C }
  - { offsetInCU: 0x149A0, offset: 0x149A0, size: 0x8, addend: 0x0, symName: __ZNSt3__114__split_bufferI1XRNS_9allocatorIS1_EEE5clearB7v160006Ev, symObjAddr: 0x33AC, symBinAddr: 0x100005F00, symSize: 0x28 }
  - { offsetInCU: 0x149C6, offset: 0x149C6, size: 0x8, addend: 0x0, symName: __ZNSt3__116allocator_traitsINS_9allocatorI1XEEE10deallocateB7v160006ERS3_PS2_m, symObjAddr: 0x33D4, symBinAddr: 0x100005F28, symSize: 0x34 }
  - { offsetInCU: 0x14A08, offset: 0x14A08, size: 0x8, addend: 0x0, symName: __ZNKSt3__114__split_bufferI1XRNS_9allocatorIS1_EEE8capacityB7v160006Ev, symObjAddr: 0x3408, symBinAddr: 0x100005F5C, symSize: 0x40 }
  - { offsetInCU: 0x14A2E, offset: 0x14A2E, size: 0x8, addend: 0x0, symName: __ZNSt3__114__split_bufferI1XRNS_9allocatorIS1_EEE17__destruct_at_endB7v160006EPS1_, symObjAddr: 0x3448, symBinAddr: 0x100005F9C, symSize: 0x2C }
  - { offsetInCU: 0x14A62, offset: 0x14A62, size: 0x8, addend: 0x0, symName: __ZNSt3__114__split_bufferI1XRNS_9allocatorIS1_EEE17__destruct_at_endB7v160006EPS1_NS_17integral_constantIbLb0EEE, symObjAddr: 0x3474, symBinAddr: 0x100005FC8, symSize: 0x80 }
  - { offsetInCU: 0x14AA2, offset: 0x14AA2, size: 0x8, addend: 0x0, symName: __ZNSt3__116allocator_traitsINS_9allocatorI1XEEE7destroyB7v160006IS2_vEEvRS3_PT_, symObjAddr: 0x34F4, symBinAddr: 0x100006048, symSize: 0x2C }
  - { offsetInCU: 0x14ADF, offset: 0x14ADF, size: 0x8, addend: 0x0, symName: __ZNSt3__19allocatorI1XE7destroyB7v160006EPS1_, symObjAddr: 0x3520, symBinAddr: 0x100006074, symSize: 0x14 }
  - { offsetInCU: 0x14B13, offset: 0x14B13, size: 0x8, addend: 0x0, symName: __ZNSt3__19allocatorI1XE10deallocateB7v160006EPS1_m, symObjAddr: 0x3534, symBinAddr: 0x100006088, symSize: 0x40 }
  - { offsetInCU: 0x14B55, offset: 0x14B55, size: 0x8, addend: 0x0, symName: __ZNKSt3__114__split_bufferI1XRNS_9allocatorIS1_EEE9__end_capB7v160006Ev, symObjAddr: 0x3574, symBinAddr: 0x1000060C8, symSize: 0x28 }
  - { offsetInCU: 0x14B7B, offset: 0x14B7B, size: 0x8, addend: 0x0, symName: __ZNKSt3__117__compressed_pairIP1XRNS_9allocatorIS1_EEE5firstB7v160006Ev, symObjAddr: 0x359C, symBinAddr: 0x1000060F0, symSize: 0x24 }
  - { offsetInCU: 0x14BA1, offset: 0x14BA1, size: 0x8, addend: 0x0, symName: __ZNSt3__16vectorI1XNS_9allocatorIS1_EEE22__construct_one_at_endB7v160006IJRKS1_EEEvDpOT_, symObjAddr: 0x35C0, symBinAddr: 0x100006114, symSize: 0x90 }
  - { offsetInCU: 0x14BF0, offset: 0x14BF0, size: 0x8, addend: 0x0, symName: __ZNSt3__16vectorI1XNS_9allocatorIS1_EEE21__push_back_slow_pathIRKS1_EEvOT_, symObjAddr: 0x3650, symBinAddr: 0x1000061A4, symSize: 0xD8 }
  - { offsetInCU: 0x14C67, offset: 0x14C67, size: 0x8, addend: 0x0, symName: __ZNSt3__16vectorI1XNS_9allocatorIS1_EEE21_ConstructTransactionC1B7v160006ERS4_m, symObjAddr: 0x3728, symBinAddr: 0x10000627C, symSize: 0x3C }
  - { offsetInCU: 0x14CAF, offset: 0x14CAF, size: 0x8, addend: 0x0, symName: __ZNSt3__116allocator_traitsINS_9allocatorI1XEEE9constructB7v160006IS2_JRKS2_EvEEvRS3_PT_DpOT0_, symObjAddr: 0x3764, symBinAddr: 0x1000062B8, symSize: 0x34 }
  - { offsetInCU: 0x14D06, offset: 0x14D06, size: 0x8, addend: 0x0, symName: __ZNSt3__16vectorI1XNS_9allocatorIS1_EEE21_ConstructTransactionD1B7v160006Ev, symObjAddr: 0x3798, symBinAddr: 0x1000062EC, symSize: 0x2C }
  - { offsetInCU: 0x14D30, offset: 0x14D30, size: 0x8, addend: 0x0, symName: __ZNSt3__16vectorI1XNS_9allocatorIS1_EEE21_ConstructTransactionC2B7v160006ERS4_m, symObjAddr: 0x37C4, symBinAddr: 0x100006318, symSize: 0x44 }
  - { offsetInCU: 0x14D78, offset: 0x14D78, size: 0x8, addend: 0x0, symName: __ZNSt3__19allocatorI1XE9constructB7v160006IS1_JRKS1_EEEvPT_DpOT0_, symObjAddr: 0x3808, symBinAddr: 0x10000635C, symSize: 0x28 }
  - { offsetInCU: 0x14DCE, offset: 0x14DCE, size: 0x8, addend: 0x0, symName: __ZNSt3__16vectorI1XNS_9allocatorIS1_EEE21_ConstructTransactionD2B7v160006Ev, symObjAddr: 0x3830, symBinAddr: 0x100006384, symSize: 0x20 }
  - { offsetInCU: 0x14DF8, offset: 0x14DF8, size: 0x8, addend: 0x0, symName: __ZNKSt3__16vectorI1XNS_9allocatorIS1_EEE11__recommendB7v160006Em, symObjAddr: 0x3850, symBinAddr: 0x1000063A4, symSize: 0xB4 }
  - { offsetInCU: 0x14E5C, offset: 0x14E5C, size: 0x8, addend: 0x0, symName: __ZNSt3__116_UnwrapAlgPolicyIRNS_6__lessI1XS2_EEE10__get_compB7v160006ES4_, symObjAddr: 0x3B44, symBinAddr: 0x100006698, symSize: 0x14 }
  - { offsetInCU: 0x14E7F, offset: 0x14E7F, size: 0x8, addend: 0x0, symName: __ZNKSt3__16__lessI1XS1_EclB7v160006ERKS1_S4_, symObjAddr: 0x4244, symBinAddr: 0x100006D98, symSize: 0x34 }
  - { offsetInCU: 0x14EC1, offset: 0x14EC1, size: 0x8, addend: 0x0, symName: __ZNSt3__18_IterOpsINS_17_ClassicAlgPolicyEE9iter_swapB7v160006IRP1XS6_EEvOT_OT0_, symObjAddr: 0x4278, symBinAddr: 0x100006DCC, symSize: 0x34 }
  - { offsetInCU: 0x14F04, offset: 0x14F04, size: 0x8, addend: 0x0, symName: __ZNK1XltERKS_, symObjAddr: 0x4A10, symBinAddr: 0x100007564, symSize: 0x90 }
  - { offsetInCU: 0x14F38, offset: 0x14F38, size: 0x8, addend: 0x0, symName: __ZNSt3__18_IterOpsINS_17_ClassicAlgPolicyEE11__iter_moveB7v160006IRP1XEENS_9enable_ifIXsr12is_referenceIDTdeclsr3stdE7declvalIRT_EEEEE5valueEDTclsr3stdE4movedeclsr3stdE7declvalIS9_EEEEE4typeEOS8_, symObjAddr: 0x4BEC, symBinAddr: 0x100007740, symSize: 0x28 }
  - { offsetInCU: 0x14F64, offset: 0x14F64, size: 0x8, addend: 0x0, symName: __ZNSt3__18_IterOpsINS_17_ClassicAlgPolicyEE25__validate_iter_referenceB7v160006IRP1XEEvv, symObjAddr: 0x4C14, symBinAddr: 0x100007768, symSize: 0x4 }
  - { offsetInCU: 0x14F82, offset: 0x14F82, size: 0x8, addend: 0x0, symName: __ZNSt3__18_IterOpsINS_17_ClassicAlgPolicyEE4nextB7v160006IP1XEET_S6_S6_, symObjAddr: 0x4C18, symBinAddr: 0x10000776C, symSize: 0x18 }
  - { offsetInCU: 0x14FB8, offset: 0x14FB8, size: 0x8, addend: 0x0, symName: __ZNSt3__118__unwrap_iter_implINS_11__wrap_iterIP1XEELb1EE8__unwrapB7v160006ES4_, symObjAddr: 0x54E4, symBinAddr: 0x100008038, symSize: 0x28 }
  - { offsetInCU: 0x14FE5, offset: 0x14FE5, size: 0x8, addend: 0x0, symName: __ZNSt3__119__to_address_helperINS_11__wrap_iterIP1XEEvE6__callB7v160006ERKS4_, symObjAddr: 0x5530, symBinAddr: 0x100008084, symSize: 0x30 }
  - { offsetInCU: 0x15008, offset: 0x15008, size: 0x8, addend: 0x0, symName: __ZNSt3__114pointer_traitsINS_11__wrap_iterIP1XEEE10to_addressB7v160006ES4_, symObjAddr: 0x5560, symBinAddr: 0x1000080B4, symSize: 0x2C }
  - { offsetInCU: 0x1502C, offset: 0x1502C, size: 0x8, addend: 0x0, symName: __ZNKSt3__111__wrap_iterIP1XE4baseB7v160006Ev, symObjAddr: 0x558C, symBinAddr: 0x1000080E0, symSize: 0x18 }
  - { offsetInCU: 0x15052, offset: 0x15052, size: 0x8, addend: 0x0, symName: __ZNSt3__16vectorI1XNS_9allocatorIS1_EEE11__make_iterB7v160006EPS1_, symObjAddr: 0x55A4, symBinAddr: 0x1000080F8, symSize: 0x34 }
  - { offsetInCU: 0x15087, offset: 0x15087, size: 0x8, addend: 0x0, symName: __ZNSt3__111__wrap_iterIP1XEC1B7v160006EPKvS2_, symObjAddr: 0x55D8, symBinAddr: 0x10000812C, symSize: 0x3C }
  - { offsetInCU: 0x150CD, offset: 0x150CD, size: 0x8, addend: 0x0, symName: __ZNSt3__111__wrap_iterIP1XEC2B7v160006EPKvS2_, symObjAddr: 0x5614, symBinAddr: 0x100008168, symSize: 0x24 }
  - { offsetInCU: 0x15113, offset: 0x15113, size: 0x8, addend: 0x0, symName: __ZNSt3__16vectorI1XNS_9allocatorIS1_EEED2B7v160006Ev, symObjAddr: 0x5638, symBinAddr: 0x10000818C, symSize: 0x44 }
  - { offsetInCU: 0x1513D, offset: 0x1513D, size: 0x8, addend: 0x0, symName: __ZNSt3__16vectorI1XNS_9allocatorIS1_EEE16__destroy_vectorC1ERS4_, symObjAddr: 0x567C, symBinAddr: 0x1000081D0, symSize: 0x34 }
  - { offsetInCU: 0x15176, offset: 0x15176, size: 0x8, addend: 0x0, symName: __ZNSt3__16vectorI1XNS_9allocatorIS1_EEE16__destroy_vectorclB7v160006Ev, symObjAddr: 0x56B0, symBinAddr: 0x100008204, symSize: 0x9C }
  - { offsetInCU: 0x1519C, offset: 0x1519C, size: 0x8, addend: 0x0, symName: __ZNSt3__16vectorI1XNS_9allocatorIS1_EEE16__destroy_vectorC2ERS4_, symObjAddr: 0x574C, symBinAddr: 0x1000082A0, symSize: 0x20 }
  - { offsetInCU: 0x151D5, offset: 0x151D5, size: 0x8, addend: 0x0, symName: __ZNSt3__16vectorI1XNS_9allocatorIS1_EEE7__clearB7v160006Ev, symObjAddr: 0x577C, symBinAddr: 0x1000082D0, symSize: 0x28 }
  - { offsetInCU: 0x151FB, offset: 0x151FB, size: 0x8, addend: 0x0, symName: __ZNSt3__16vectorI1XNS_9allocatorIS1_EEE22__base_destruct_at_endB7v160006EPS1_, symObjAddr: 0x57A4, symBinAddr: 0x1000082F8, symSize: 0x8C }
  - { offsetInCU: 0x1523F, offset: 0x1523F, size: 0x8, addend: 0x0, symName: __ZNSt3__111char_traitsIcE6lengthEPKc, symObjAddr: 0x5830, symBinAddr: 0x100008384, symSize: 0x34 }
  - { offsetInCU: 0x15262, offset: 0x15262, size: 0x8, addend: 0x0, symName: __ZNSt3__112basic_stringIcNS_11char_traitsIcEENS_9allocatorIcEEE13__get_pointerB7v160006Ev, symObjAddr: 0x5888, symBinAddr: 0x1000083DC, symSize: 0x54 }
  - { offsetInCU: 0x15288, offset: 0x15288, size: 0x8, addend: 0x0, symName: __ZNKSt3__112basic_stringIcNS_11char_traitsIcEENS_9allocatorIcEEE9__is_longB7v160006Ev, symObjAddr: 0x58DC, symBinAddr: 0x100008430, symSize: 0x38 }
  - { offsetInCU: 0x152AE, offset: 0x152AE, size: 0x8, addend: 0x0, symName: __ZNSt3__112basic_stringIcNS_11char_traitsIcEENS_9allocatorIcEEE18__get_long_pointerB7v160006Ev, symObjAddr: 0x5914, symBinAddr: 0x100008468, symSize: 0x28 }
  - { offsetInCU: 0x152D4, offset: 0x152D4, size: 0x8, addend: 0x0, symName: __ZNSt3__112basic_stringIcNS_11char_traitsIcEENS_9allocatorIcEEE19__get_short_pointerB7v160006Ev, symObjAddr: 0x593C, symBinAddr: 0x100008490, symSize: 0x28 }
  - { offsetInCU: 0x152FA, offset: 0x152FA, size: 0x8, addend: 0x0, symName: __ZNKSt3__117__compressed_pairINS_12basic_stringIcNS_11char_traitsIcEENS_9allocatorIcEEE5__repES5_E5firstB7v160006Ev, symObjAddr: 0x5964, symBinAddr: 0x1000084B8, symSize: 0x24 }
  - { offsetInCU: 0x15320, offset: 0x15320, size: 0x8, addend: 0x0, symName: __ZNKSt3__122__compressed_pair_elemINS_12basic_stringIcNS_11char_traitsIcEENS_9allocatorIcEEE5__repELi0ELb0EE5__getB7v160006Ev, symObjAddr: 0x5988, symBinAddr: 0x1000084DC, symSize: 0x14 }
  - { offsetInCU: 0x15346, offset: 0x15346, size: 0x8, addend: 0x0, symName: __ZNSt3__117__compressed_pairINS_12basic_stringIcNS_11char_traitsIcEENS_9allocatorIcEEE5__repES5_E5firstB7v160006Ev, symObjAddr: 0x599C, symBinAddr: 0x1000084F0, symSize: 0x24 }
  - { offsetInCU: 0x1536C, offset: 0x1536C, size: 0x8, addend: 0x0, symName: __ZNSt3__122__compressed_pair_elemINS_12basic_stringIcNS_11char_traitsIcEENS_9allocatorIcEEE5__repELi0ELb0EE5__getB7v160006Ev, symObjAddr: 0x59C0, symBinAddr: 0x100008514, symSize: 0x14 }
  - { offsetInCU: 0x15392, offset: 0x15392, size: 0x8, addend: 0x0, symName: __ZNSt3__114pointer_traitsIPcE10pointer_toB7v160006ERc, symObjAddr: 0x59D4, symBinAddr: 0x100008528, symSize: 0x14 }
  - { offsetInCU: 0x153B5, offset: 0x153B5, size: 0x8, addend: 0x0, symName: __ZNKSt3__112basic_stringIcNS_11char_traitsIcEENS_9allocatorIcEEE15__get_long_sizeB7v160006Ev, symObjAddr: 0x59E8, symBinAddr: 0x10000853C, symSize: 0x28 }
  - { offsetInCU: 0x153DB, offset: 0x153DB, size: 0x8, addend: 0x0, symName: __ZNKSt3__112basic_stringIcNS_11char_traitsIcEENS_9allocatorIcEEE16__get_short_sizeB7v160006Ev, symObjAddr: 0x5A10, symBinAddr: 0x100008564, symSize: 0x34 }
  - { offsetInCU: 0x15401, offset: 0x15401, size: 0x8, addend: 0x0, symName: __ZNSt3__16vectorIP8TreeNodeNS_9allocatorIS2_EEEC2B7v160006Ev, symObjAddr: 0x5A44, symBinAddr: 0x100008598, symSize: 0x58 }
  - { offsetInCU: 0x1542B, offset: 0x1542B, size: 0x8, addend: 0x0, symName: __ZNSt3__117__compressed_pairIPP8TreeNodeNS_9allocatorIS2_EEEC1B7v160006IDnNS_18__default_init_tagEEEOT_OT0_, symObjAddr: 0x5A9C, symBinAddr: 0x1000085F0, symSize: 0x3C }
  - { offsetInCU: 0x15483, offset: 0x15483, size: 0x8, addend: 0x0, symName: __ZNSt3__117__compressed_pairIPP8TreeNodeNS_9allocatorIS2_EEEC2B7v160006IDnNS_18__default_init_tagEEEOT_OT0_, symObjAddr: 0x5AE8, symBinAddr: 0x10000863C, symSize: 0x40 }
  - { offsetInCU: 0x154DB, offset: 0x154DB, size: 0x8, addend: 0x0, symName: __ZNSt3__122__compressed_pair_elemIPP8TreeNodeLi0ELb0EEC2B7v160006IDnvEEOT_, symObjAddr: 0x5B28, symBinAddr: 0x10000867C, symSize: 0x1C }
  - { offsetInCU: 0x1551D, offset: 0x1551D, size: 0x8, addend: 0x0, symName: __ZNSt3__122__compressed_pair_elemINS_9allocatorIP8TreeNodeEELi1ELb1EEC2B7v160006ENS_18__default_init_tagE, symObjAddr: 0x5B44, symBinAddr: 0x100008698, symSize: 0x2C }
  - { offsetInCU: 0x15551, offset: 0x15551, size: 0x8, addend: 0x0, symName: __ZNSt3__19allocatorIP8TreeNodeEC2B7v160006Ev, symObjAddr: 0x5B70, symBinAddr: 0x1000086C4, symSize: 0x2C }
  - { offsetInCU: 0x1557B, offset: 0x1557B, size: 0x8, addend: 0x0, symName: __ZNSt3__116__non_trivial_ifILb1ENS_9allocatorIP8TreeNodeEEEC2B7v160006Ev, symObjAddr: 0x5B9C, symBinAddr: 0x1000086F0, symSize: 0x14 }
  - { offsetInCU: 0x155A5, offset: 0x155A5, size: 0x8, addend: 0x0, symName: __ZNSt3__16vectorIP8TreeNodeNS_9allocatorIS2_EEED2B7v160006Ev, symObjAddr: 0x5BB0, symBinAddr: 0x100008704, symSize: 0x44 }
  - { offsetInCU: 0x155CF, offset: 0x155CF, size: 0x8, addend: 0x0, symName: __ZNSt3__16vectorIP8TreeNodeNS_9allocatorIS2_EEE16__destroy_vectorC1ERS5_, symObjAddr: 0x5BF4, symBinAddr: 0x100008748, symSize: 0x34 }
  - { offsetInCU: 0x15608, offset: 0x15608, size: 0x8, addend: 0x0, symName: __ZNSt3__16vectorIP8TreeNodeNS_9allocatorIS2_EEE16__destroy_vectorclB7v160006Ev, symObjAddr: 0x5C28, symBinAddr: 0x10000877C, symSize: 0x9C }
  - { offsetInCU: 0x1562E, offset: 0x1562E, size: 0x8, addend: 0x0, symName: __ZNSt3__16vectorIP8TreeNodeNS_9allocatorIS2_EEE16__destroy_vectorC2ERS5_, symObjAddr: 0x5CC4, symBinAddr: 0x100008818, symSize: 0x20 }
  - { offsetInCU: 0x15667, offset: 0x15667, size: 0x8, addend: 0x0, symName: __ZNKSt3__16vectorIP8TreeNodeNS_9allocatorIS2_EEE17__annotate_deleteB7v160006Ev, symObjAddr: 0x5CE4, symBinAddr: 0x100008838, symSize: 0xB8 }
  - { offsetInCU: 0x1568D, offset: 0x1568D, size: 0x8, addend: 0x0, symName: __ZNSt3__16vectorIP8TreeNodeNS_9allocatorIS2_EEE7__clearB7v160006Ev, symObjAddr: 0x5DAC, symBinAddr: 0x100008900, symSize: 0x28 }
  - { offsetInCU: 0x156B3, offset: 0x156B3, size: 0x8, addend: 0x0, symName: __ZNSt3__16vectorIP8TreeNodeNS_9allocatorIS2_EEE7__allocB7v160006Ev, symObjAddr: 0x5DD4, symBinAddr: 0x100008928, symSize: 0x28 }
  - { offsetInCU: 0x156D9, offset: 0x156D9, size: 0x8, addend: 0x0, symName: __ZNKSt3__16vectorIP8TreeNodeNS_9allocatorIS2_EEE8capacityB7v160006Ev, symObjAddr: 0x5DFC, symBinAddr: 0x100008950, symSize: 0x40 }
  - { offsetInCU: 0x156FF, offset: 0x156FF, size: 0x8, addend: 0x0, symName: __ZNKSt3__16vectorIP8TreeNodeNS_9allocatorIS2_EEE31__annotate_contiguous_containerB7v160006EPKvS7_S7_S7_, symObjAddr: 0x5E3C, symBinAddr: 0x100008990, symSize: 0x20 }
  - { offsetInCU: 0x15751, offset: 0x15751, size: 0x8, addend: 0x0, symName: __ZNKSt3__16vectorIP8TreeNodeNS_9allocatorIS2_EEE4dataB7v160006Ev, symObjAddr: 0x5E5C, symBinAddr: 0x1000089B0, symSize: 0x28 }
  - { offsetInCU: 0x15777, offset: 0x15777, size: 0x8, addend: 0x0, symName: __ZNSt3__16vectorIP8TreeNodeNS_9allocatorIS2_EEE22__base_destruct_at_endB7v160006EPS2_, symObjAddr: 0x5E98, symBinAddr: 0x1000089EC, symSize: 0x8C }
  - { offsetInCU: 0x157BB, offset: 0x157BB, size: 0x8, addend: 0x0, symName: __ZNSt3__117__compressed_pairIPP8TreeNodeNS_9allocatorIS2_EEE6secondB7v160006Ev, symObjAddr: 0x5F24, symBinAddr: 0x100008A78, symSize: 0x24 }
  - { offsetInCU: 0x157E1, offset: 0x157E1, size: 0x8, addend: 0x0, symName: __ZNKSt3__16vectorIP8TreeNodeNS_9allocatorIS2_EEE9__end_capB7v160006Ev, symObjAddr: 0x5F48, symBinAddr: 0x100008A9C, symSize: 0x28 }
  - { offsetInCU: 0x15807, offset: 0x15807, size: 0x8, addend: 0x0, symName: __ZNKSt3__117__compressed_pairIPP8TreeNodeNS_9allocatorIS2_EEE5firstB7v160006Ev, symObjAddr: 0x5F70, symBinAddr: 0x100008AC4, symSize: 0x24 }
  - { offsetInCU: 0x1582D, offset: 0x1582D, size: 0x8, addend: 0x0, symName: __ZNKSt3__122__compressed_pair_elemIPP8TreeNodeLi0ELb0EE5__getB7v160006Ev, symObjAddr: 0x5F94, symBinAddr: 0x100008AE8, symSize: 0x14 }
  - { offsetInCU: 0x15853, offset: 0x15853, size: 0x8, addend: 0x0, symName: __ZNSt3__112basic_stringIcNS_11char_traitsIcEENS_9allocatorIcEEEC2B7v160006IDnEEPKc, symObjAddr: 0x5FA8, symBinAddr: 0x100008AFC, symSize: 0x60 }
  - { offsetInCU: 0x15891, offset: 0x15891, size: 0x8, addend: 0x0, symName: __ZNSt3__117__compressed_pairINS_12basic_stringIcNS_11char_traitsIcEENS_9allocatorIcEEE5__repES5_EC1B7v160006INS_18__default_init_tagESA_EEOT_OT0_, symObjAddr: 0x6008, symBinAddr: 0x100008B5C, symSize: 0x3C }
  - { offsetInCU: 0x158E9, offset: 0x158E9, size: 0x8, addend: 0x0, symName: __ZNSt3__117__compressed_pairINS_12basic_stringIcNS_11char_traitsIcEENS_9allocatorIcEEE5__repES5_EC2B7v160006INS_18__default_init_tagESA_EEOT_OT0_, symObjAddr: 0x6054, symBinAddr: 0x100008BA8, symSize: 0x3C }
  - { offsetInCU: 0x15941, offset: 0x15941, size: 0x8, addend: 0x0, symName: __ZNSt3__122__compressed_pair_elemINS_12basic_stringIcNS_11char_traitsIcEENS_9allocatorIcEEE5__repELi0ELb0EEC2B7v160006ENS_18__default_init_tagE, symObjAddr: 0x6090, symBinAddr: 0x100008BE4, symSize: 0x14 }
  - { offsetInCU: 0x15975, offset: 0x15975, size: 0x8, addend: 0x0, symName: __ZNSt3__122__compressed_pair_elemINS_9allocatorIcEELi1ELb1EEC2B7v160006ENS_18__default_init_tagE, symObjAddr: 0x60A4, symBinAddr: 0x100008BF8, symSize: 0x2C }
  - { offsetInCU: 0x159A9, offset: 0x159A9, size: 0x8, addend: 0x0, symName: __ZNSt3__19allocatorIcEC2B7v160006Ev, symObjAddr: 0x60D0, symBinAddr: 0x100008C24, symSize: 0x2C }
  - { offsetInCU: 0x159D3, offset: 0x159D3, size: 0x8, addend: 0x0, symName: __ZNSt3__116__non_trivial_ifILb1ENS_9allocatorIcEEEC2B7v160006Ev, symObjAddr: 0x60FC, symBinAddr: 0x100008C50, symSize: 0x14 }
  - { offsetInCU: 0x159FD, offset: 0x159FD, size: 0x8, addend: 0x0, symName: __ZNSt3__112basic_stringIcNS_11char_traitsIcEENS_9allocatorIcEEEC2B7v160006Ev, symObjAddr: 0x6110, symBinAddr: 0x100008C64, symSize: 0x50 }
  - { offsetInCU: 0x15A27, offset: 0x15A27, size: 0x8, addend: 0x0, symName: __ZNSt3__112basic_stringIcNS_11char_traitsIcEENS_9allocatorIcEEE14__default_initB7v160006Ev, symObjAddr: 0x6160, symBinAddr: 0x100008CB4, symSize: 0x40 }
  - { offsetInCU: 0x15A4D, offset: 0x15A4D, size: 0x8, addend: 0x0, symName: __ZNKSt3__112basic_stringIcNS_11char_traitsIcEENS_9allocatorIcEEE4dataB7v160006Ev, symObjAddr: 0x6284, symBinAddr: 0x100008DD8, symSize: 0x28 }
  - { offsetInCU: 0x15A73, offset: 0x15A73, size: 0x8, addend: 0x0, symName: __ZNSt3__111char_traitsIcE4findEPKcmRS2_, symObjAddr: 0x6400, symBinAddr: 0x100008F54, symSize: 0x70 }
  - { offsetInCU: 0x15AB2, offset: 0x15AB2, size: 0x8, addend: 0x0, symName: __ZNSt3__111char_traitsIcE7compareEPKcS3_m, symObjAddr: 0x6470, symBinAddr: 0x100008FC4, symSize: 0x6C }
  - { offsetInCU: 0x15AF1, offset: 0x15AF1, size: 0x8, addend: 0x0, symName: __ZNKSt3__112basic_stringIcNS_11char_traitsIcEENS_9allocatorIcEEE13__get_pointerB7v160006Ev, symObjAddr: 0x6558, symBinAddr: 0x1000090AC, symSize: 0x54 }
  - { offsetInCU: 0x15B17, offset: 0x15B17, size: 0x8, addend: 0x0, symName: __ZNKSt3__112basic_stringIcNS_11char_traitsIcEENS_9allocatorIcEEE18__get_long_pointerB7v160006Ev, symObjAddr: 0x65AC, symBinAddr: 0x100009100, symSize: 0x28 }
  - { offsetInCU: 0x15B3D, offset: 0x15B3D, size: 0x8, addend: 0x0, symName: __ZNKSt3__112basic_stringIcNS_11char_traitsIcEENS_9allocatorIcEEE19__get_short_pointerB7v160006Ev, symObjAddr: 0x65D4, symBinAddr: 0x100009128, symSize: 0x28 }
  - { offsetInCU: 0x15B63, offset: 0x15B63, size: 0x8, addend: 0x0, symName: __ZNSt3__114pointer_traitsIPKcE10pointer_toB7v160006ERS1_, symObjAddr: 0x65FC, symBinAddr: 0x100009150, symSize: 0x14 }
  - { offsetInCU: 0x15B86, offset: 0x15B86, size: 0x8, addend: 0x0, symName: __ZNSt3__19allocatorIcEC1B7v160006Ev, symObjAddr: 0x6610, symBinAddr: 0x100009164, symSize: 0x2C }
  - { offsetInCU: 0x15BB0, offset: 0x15BB0, size: 0x8, addend: 0x0, symName: __ZNSt3__112basic_stringIcNS_11char_traitsIcEENS_9allocatorIcEEE13__move_assignB7v160006ERS5_NS_17integral_constantIbLb1EEE, symObjAddr: 0x663C, symBinAddr: 0x100009190, symSize: 0xC8 }
  - { offsetInCU: 0x15BF2, offset: 0x15BF2, size: 0x8, addend: 0x0, symName: __ZNSt3__116allocator_traitsINS_9allocatorIcEEE10deallocateB7v160006ERS2_Pcm, symObjAddr: 0x6704, symBinAddr: 0x100009258, symSize: 0x34 }
  - { offsetInCU: 0x15C34, offset: 0x15C34, size: 0x8, addend: 0x0, symName: __ZNSt3__112basic_stringIcNS_11char_traitsIcEENS_9allocatorIcEEE7__allocB7v160006Ev, symObjAddr: 0x6738, symBinAddr: 0x10000928C, symSize: 0x24 }
  - { offsetInCU: 0x15C5A, offset: 0x15C5A, size: 0x8, addend: 0x0, symName: __ZNKSt3__112basic_stringIcNS_11char_traitsIcEENS_9allocatorIcEEE14__get_long_capB7v160006Ev, symObjAddr: 0x675C, symBinAddr: 0x1000092B0, symSize: 0x30 }
  - { offsetInCU: 0x15C80, offset: 0x15C80, size: 0x8, addend: 0x0, symName: __ZNSt3__112basic_stringIcNS_11char_traitsIcEENS_9allocatorIcEEE19__move_assign_allocB7v160006ERS5_, symObjAddr: 0x678C, symBinAddr: 0x1000092E0, symSize: 0x2C }
  - { offsetInCU: 0x15CB5, offset: 0x15CB5, size: 0x8, addend: 0x0, symName: __ZNSt3__112basic_stringIcNS_11char_traitsIcEENS_9allocatorIcEEE16__set_short_sizeB7v160006Em, symObjAddr: 0x67B8, symBinAddr: 0x10000930C, symSize: 0x78 }
  - { offsetInCU: 0x15CEA, offset: 0x15CEA, size: 0x8, addend: 0x0, symName: __ZNSt3__111char_traitsIcE6assignERcRKc, symObjAddr: 0x6830, symBinAddr: 0x100009384, symSize: 0x24 }
  - { offsetInCU: 0x15D1B, offset: 0x15D1B, size: 0x8, addend: 0x0, symName: __ZNSt3__19allocatorIcE10deallocateB7v160006EPcm, symObjAddr: 0x6854, symBinAddr: 0x1000093A8, symSize: 0x40 }
  - { offsetInCU: 0x15D5D, offset: 0x15D5D, size: 0x8, addend: 0x0, symName: __ZNSt3__117__compressed_pairINS_12basic_stringIcNS_11char_traitsIcEENS_9allocatorIcEEE5__repES5_E6secondB7v160006Ev, symObjAddr: 0x6894, symBinAddr: 0x1000093E8, symSize: 0x24 }
  - { offsetInCU: 0x15D83, offset: 0x15D83, size: 0x8, addend: 0x0, symName: __ZNSt3__122__compressed_pair_elemINS_9allocatorIcEELi1ELb1EE5__getB7v160006Ev, symObjAddr: 0x68B8, symBinAddr: 0x10000940C, symSize: 0x14 }
  - { offsetInCU: 0x15DA9, offset: 0x15DA9, size: 0x8, addend: 0x0, symName: __ZNSt3__112basic_stringIcNS_11char_traitsIcEENS_9allocatorIcEEE19__move_assign_allocB7v160006ERS5_NS_17integral_constantIbLb1EEE, symObjAddr: 0x68CC, symBinAddr: 0x100009420, symSize: 0x38 }
  - { offsetInCU: 0x15DE9, offset: 0x15DE9, size: 0x8, addend: 0x0, symName: __ZNSt3__16vectorIP8TreeNodeNS_9allocatorIS2_EEE9__end_capB7v160006Ev, symObjAddr: 0x6904, symBinAddr: 0x100009458, symSize: 0x28 }
  - { offsetInCU: 0x15E14, offset: 0x15E14, size: 0x8, addend: 0x0, symName: __ZNSt3__16vectorIP8TreeNodeNS_9allocatorIS2_EEE22__construct_one_at_endB7v160006IJS2_EEEvDpOT_, symObjAddr: 0x692C, symBinAddr: 0x100009480, symSize: 0x90 }
  - { offsetInCU: 0x15E63, offset: 0x15E63, size: 0x8, addend: 0x0, symName: __ZNSt3__16vectorIP8TreeNodeNS_9allocatorIS2_EEE21__push_back_slow_pathIS2_EEvOT_, symObjAddr: 0x69BC, symBinAddr: 0x100009510, symSize: 0xD8 }
  - { offsetInCU: 0x15EC1, offset: 0x15EC1, size: 0x8, addend: 0x0, symName: __ZNSt3__117__compressed_pairIPP8TreeNodeNS_9allocatorIS2_EEE5firstB7v160006Ev, symObjAddr: 0x6A94, symBinAddr: 0x1000095E8, symSize: 0x24 }
  - { offsetInCU: 0x15EE7, offset: 0x15EE7, size: 0x8, addend: 0x0, symName: __ZNSt3__122__compressed_pair_elemIPP8TreeNodeLi0ELb0EE5__getB7v160006Ev, symObjAddr: 0x6AB8, symBinAddr: 0x10000960C, symSize: 0x14 }
  - { offsetInCU: 0x15F26, offset: 0x15F26, size: 0x8, addend: 0x0, symName: __ZNSt3__16vectorIP8TreeNodeNS_9allocatorIS2_EEE21_ConstructTransactionC1B7v160006ERS5_m, symObjAddr: 0x6ACC, symBinAddr: 0x100009620, symSize: 0x3C }
  - { offsetInCU: 0x15F6E, offset: 0x15F6E, size: 0x8, addend: 0x0, symName: __ZNSt3__116allocator_traitsINS_9allocatorIP8TreeNodeEEE9constructB7v160006IS3_JS3_EvEEvRS4_PT_DpOT0_, symObjAddr: 0x6B08, symBinAddr: 0x10000965C, symSize: 0x34 }
  - { offsetInCU: 0x15FC5, offset: 0x15FC5, size: 0x8, addend: 0x0, symName: __ZNSt3__16vectorIP8TreeNodeNS_9allocatorIS2_EEE21_ConstructTransactionD1B7v160006Ev, symObjAddr: 0x6B3C, symBinAddr: 0x100009690, symSize: 0x2C }
  - { offsetInCU: 0x15FEF, offset: 0x15FEF, size: 0x8, addend: 0x0, symName: __ZNSt3__16vectorIP8TreeNodeNS_9allocatorIS2_EEE21_ConstructTransactionC2B7v160006ERS5_m, symObjAddr: 0x6B68, symBinAddr: 0x1000096BC, symSize: 0x44 }
  - { offsetInCU: 0x16037, offset: 0x16037, size: 0x8, addend: 0x0, symName: __ZNSt3__19allocatorIP8TreeNodeE9constructB7v160006IS2_JS2_EEEvPT_DpOT0_, symObjAddr: 0x6BAC, symBinAddr: 0x100009700, symSize: 0x28 }
  - { offsetInCU: 0x1608D, offset: 0x1608D, size: 0x8, addend: 0x0, symName: __ZNSt3__16vectorIP8TreeNodeNS_9allocatorIS2_EEE21_ConstructTransactionD2B7v160006Ev, symObjAddr: 0x6BD4, symBinAddr: 0x100009728, symSize: 0x20 }
  - { offsetInCU: 0x160B7, offset: 0x160B7, size: 0x8, addend: 0x0, symName: __ZNKSt3__16vectorIP8TreeNodeNS_9allocatorIS2_EEE11__recommendB7v160006Em, symObjAddr: 0x6BF4, symBinAddr: 0x100009748, symSize: 0xB4 }
  - { offsetInCU: 0x1610C, offset: 0x1610C, size: 0x8, addend: 0x0, symName: __ZNSt3__114__split_bufferIP8TreeNodeRNS_9allocatorIS2_EEEC1EmmS5_, symObjAddr: 0x6CA8, symBinAddr: 0x1000097FC, symSize: 0x44 }
  - { offsetInCU: 0x16162, offset: 0x16162, size: 0x8, addend: 0x0, symName: __ZNSt3__114__split_bufferIP8TreeNodeRNS_9allocatorIS2_EEED1Ev, symObjAddr: 0x6E04, symBinAddr: 0x100009958, symSize: 0x2C }
  - { offsetInCU: 0x1618E, offset: 0x1618E, size: 0x8, addend: 0x0, symName: __ZNKSt3__16vectorIP8TreeNodeNS_9allocatorIS2_EEE8max_sizeEv, symObjAddr: 0x6E30, symBinAddr: 0x100009984, symSize: 0x60 }
  - { offsetInCU: 0x161B6, offset: 0x161B6, size: 0x8, addend: 0x0, symName: __ZNKSt3__16vectorIP8TreeNodeNS_9allocatorIS2_EEE20__throw_length_errorB7v160006Ev, symObjAddr: 0x6E90, symBinAddr: 0x1000099E4, symSize: 0x1C }
  - { offsetInCU: 0x161E6, offset: 0x161E6, size: 0x8, addend: 0x0, symName: __ZNSt3__116allocator_traitsINS_9allocatorIP8TreeNodeEEE8max_sizeB7v160006IS4_vEEmRKS4_, symObjAddr: 0x6EAC, symBinAddr: 0x100009A00, symSize: 0x24 }
  - { offsetInCU: 0x16214, offset: 0x16214, size: 0x8, addend: 0x0, symName: __ZNKSt3__16vectorIP8TreeNodeNS_9allocatorIS2_EEE7__allocB7v160006Ev, symObjAddr: 0x6ED0, symBinAddr: 0x100009A24, symSize: 0x28 }
  - { offsetInCU: 0x1623A, offset: 0x1623A, size: 0x8, addend: 0x0, symName: __ZNKSt3__19allocatorIP8TreeNodeE8max_sizeB7v160006Ev, symObjAddr: 0x6EF8, symBinAddr: 0x100009A4C, symSize: 0x14 }
  - { offsetInCU: 0x16260, offset: 0x16260, size: 0x8, addend: 0x0, symName: __ZNKSt3__117__compressed_pairIPP8TreeNodeNS_9allocatorIS2_EEE6secondB7v160006Ev, symObjAddr: 0x6F0C, symBinAddr: 0x100009A60, symSize: 0x24 }
  - { offsetInCU: 0x16286, offset: 0x16286, size: 0x8, addend: 0x0, symName: __ZNKSt3__122__compressed_pair_elemINS_9allocatorIP8TreeNodeEELi1ELb1EE5__getB7v160006Ev, symObjAddr: 0x6F30, symBinAddr: 0x100009A84, symSize: 0x14 }
  - { offsetInCU: 0x162AC, offset: 0x162AC, size: 0x8, addend: 0x0, symName: __ZNSt3__114__split_bufferIP8TreeNodeRNS_9allocatorIS2_EEEC2EmmS5_, symObjAddr: 0x6F44, symBinAddr: 0x100009A98, symSize: 0xD4 }
  - { offsetInCU: 0x1631F, offset: 0x1631F, size: 0x8, addend: 0x0, symName: __ZNSt3__117__compressed_pairIPP8TreeNodeRNS_9allocatorIS2_EEEC1B7v160006IDnS6_EEOT_OT0_, symObjAddr: 0x7018, symBinAddr: 0x100009B6C, symSize: 0x3C }
  - { offsetInCU: 0x16377, offset: 0x16377, size: 0x8, addend: 0x0, symName: __ZNSt3__114__split_bufferIP8TreeNodeRNS_9allocatorIS2_EEE7__allocB7v160006Ev, symObjAddr: 0x7094, symBinAddr: 0x100009BE8, symSize: 0x28 }
  - { offsetInCU: 0x1639D, offset: 0x1639D, size: 0x8, addend: 0x0, symName: __ZNSt3__114__split_bufferIP8TreeNodeRNS_9allocatorIS2_EEE9__end_capB7v160006Ev, symObjAddr: 0x70BC, symBinAddr: 0x100009C10, symSize: 0x28 }
  - { offsetInCU: 0x163C3, offset: 0x163C3, size: 0x8, addend: 0x0, symName: __ZNSt3__117__compressed_pairIPP8TreeNodeRNS_9allocatorIS2_EEEC2B7v160006IDnS6_EEOT_OT0_, symObjAddr: 0x70E4, symBinAddr: 0x100009C38, symSize: 0x48 }
  - { offsetInCU: 0x1641B, offset: 0x1641B, size: 0x8, addend: 0x0, symName: __ZNSt3__122__compressed_pair_elemIRNS_9allocatorIP8TreeNodeEELi1ELb0EEC2B7v160006IS5_vEEOT_, symObjAddr: 0x712C, symBinAddr: 0x100009C80, symSize: 0x20 }
  - { offsetInCU: 0x1645D, offset: 0x1645D, size: 0x8, addend: 0x0, symName: __ZNSt3__19allocatorIP8TreeNodeE8allocateB7v160006Em, symObjAddr: 0x714C, symBinAddr: 0x100009CA0, symSize: 0x58 }
  - { offsetInCU: 0x16491, offset: 0x16491, size: 0x8, addend: 0x0, symName: __ZNSt3__117__compressed_pairIPP8TreeNodeRNS_9allocatorIS2_EEE6secondB7v160006Ev, symObjAddr: 0x71A4, symBinAddr: 0x100009CF8, symSize: 0x28 }
  - { offsetInCU: 0x164B7, offset: 0x164B7, size: 0x8, addend: 0x0, symName: __ZNSt3__122__compressed_pair_elemIRNS_9allocatorIP8TreeNodeEELi1ELb0EE5__getB7v160006Ev, symObjAddr: 0x71CC, symBinAddr: 0x100009D20, symSize: 0x18 }
  - { offsetInCU: 0x164DD, offset: 0x164DD, size: 0x8, addend: 0x0, symName: __ZNSt3__117__compressed_pairIPP8TreeNodeRNS_9allocatorIS2_EEE5firstB7v160006Ev, symObjAddr: 0x71E4, symBinAddr: 0x100009D38, symSize: 0x24 }
  - { offsetInCU: 0x16503, offset: 0x16503, size: 0x8, addend: 0x0, symName: __ZNSt3__116reverse_iteratorIPP8TreeNodeEC1B7v160006ES3_, symObjAddr: 0x7280, symBinAddr: 0x100009DD4, symSize: 0x34 }
  - { offsetInCU: 0x1653B, offset: 0x1653B, size: 0x8, addend: 0x0, symName: __ZNKSt3__116reverse_iteratorIPP8TreeNodeE4baseB7v160006Ev, symObjAddr: 0x72B4, symBinAddr: 0x100009E08, symSize: 0x18 }
  - { offsetInCU: 0x16561, offset: 0x16561, size: 0x8, addend: 0x0, symName: __ZNKSt3__16vectorIP8TreeNodeNS_9allocatorIS2_EEE14__annotate_newB7v160006Em, symObjAddr: 0x7308, symBinAddr: 0x100009E5C, symSize: 0xAC }
  - { offsetInCU: 0x165AF, offset: 0x165AF, size: 0x8, addend: 0x0, symName: __ZNKSt3__111__move_loopINS_17_ClassicAlgPolicyEEclB7v160006INS_16reverse_iteratorIPP8TreeNodeEES8_S8_EENS_4pairIT_T1_EESA_T0_SB_, symObjAddr: 0x76B4, symBinAddr: 0x10000A208, symSize: 0xA0 }
  - { offsetInCU: 0x1661A, offset: 0x1661A, size: 0x8, addend: 0x0, symName: __ZNSt3__18_IterOpsINS_17_ClassicAlgPolicyEE11__iter_moveB7v160006IRNS_16reverse_iteratorIPP8TreeNodeEEEENS_9enable_ifIXsr12is_referenceIDTdeclsr3stdE7declvalIRT_EEEEE5valueEDTclsr3stdE4movedeclsr3stdE7declvalISC_EEEEE4typeEOSB_, symObjAddr: 0x78E8, symBinAddr: 0x10000A43C, symSize: 0x28 }
  - { offsetInCU: 0x16646, offset: 0x16646, size: 0x8, addend: 0x0, symName: __ZNKSt3__116reverse_iteratorIPP8TreeNodeEdeB7v160006Ev, symObjAddr: 0x7910, symBinAddr: 0x10000A464, symSize: 0x28 }
  - { offsetInCU: 0x1667A, offset: 0x1667A, size: 0x8, addend: 0x0, symName: __ZNSt3__116reverse_iteratorIPP8TreeNodeEppB7v160006Ev, symObjAddr: 0x7938, symBinAddr: 0x10000A48C, symSize: 0x20 }
  - { offsetInCU: 0x166A0, offset: 0x166A0, size: 0x8, addend: 0x0, symName: __ZNSt3__18_IterOpsINS_17_ClassicAlgPolicyEE25__validate_iter_referenceB7v160006IRNS_16reverse_iteratorIPP8TreeNodeEEEEvv, symObjAddr: 0x7958, symBinAddr: 0x10000A4AC, symSize: 0x4 }
  - { offsetInCU: 0x166BE, offset: 0x166BE, size: 0x8, addend: 0x0, symName: __ZNSt3__118__unwrap_iter_implINS_16reverse_iteratorIPP8TreeNodeEELb0EE8__unwrapB7v160006ES5_, symObjAddr: 0x795C, symBinAddr: 0x10000A4B0, symSize: 0x24 }
  - { offsetInCU: 0x166E6, offset: 0x166E6, size: 0x8, addend: 0x0, symName: __ZNSt3__14pairINS_16reverse_iteratorIPP8TreeNodeEES5_EC1B7v160006IS5_S5_LPv0EEEOT_OT0_, symObjAddr: 0x7980, symBinAddr: 0x10000A4D4, symSize: 0x3C }
  - { offsetInCU: 0x16744, offset: 0x16744, size: 0x8, addend: 0x0, symName: __ZNSt3__14pairINS_16reverse_iteratorIPP8TreeNodeEES5_EC2B7v160006IS5_S5_LPv0EEEOT_OT0_, symObjAddr: 0x79BC, symBinAddr: 0x10000A510, symSize: 0x34 }
  - { offsetInCU: 0x167A2, offset: 0x167A2, size: 0x8, addend: 0x0, symName: __ZNSt3__118__unwrap_iter_implINS_16reverse_iteratorIPP8TreeNodeEELb0EE8__rewrapB7v160006ES5_S5_, symObjAddr: 0x79F0, symBinAddr: 0x10000A544, symSize: 0x2C }
  - { offsetInCU: 0x167CF, offset: 0x167CF, size: 0x8, addend: 0x0, symName: __ZNSt3__116reverse_iteratorIPP8TreeNodeEC2B7v160006ES3_, symObjAddr: 0x7A1C, symBinAddr: 0x10000A570, symSize: 0x28 }
  - { offsetInCU: 0x16807, offset: 0x16807, size: 0x8, addend: 0x0, symName: __ZNSt3__114__split_bufferIP8TreeNodeRNS_9allocatorIS2_EEED2Ev, symObjAddr: 0x7A44, symBinAddr: 0x10000A598, symSize: 0x8C }
  - { offsetInCU: 0x16833, offset: 0x16833, size: 0x8, addend: 0x0, symName: __ZNSt3__114__split_bufferIP8TreeNodeRNS_9allocatorIS2_EEE5clearB7v160006Ev, symObjAddr: 0x7AD0, symBinAddr: 0x10000A624, symSize: 0x28 }
  - { offsetInCU: 0x16859, offset: 0x16859, size: 0x8, addend: 0x0, symName: __ZNKSt3__114__split_bufferIP8TreeNodeRNS_9allocatorIS2_EEE8capacityB7v160006Ev, symObjAddr: 0x7AF8, symBinAddr: 0x10000A64C, symSize: 0x40 }
  - { offsetInCU: 0x1687F, offset: 0x1687F, size: 0x8, addend: 0x0, symName: __ZNSt3__114__split_bufferIP8TreeNodeRNS_9allocatorIS2_EEE17__destruct_at_endB7v160006EPS2_, symObjAddr: 0x7B38, symBinAddr: 0x10000A68C, symSize: 0x2C }
  - { offsetInCU: 0x168B3, offset: 0x168B3, size: 0x8, addend: 0x0, symName: __ZNSt3__114__split_bufferIP8TreeNodeRNS_9allocatorIS2_EEE17__destruct_at_endB7v160006EPS2_NS_17integral_constantIbLb0EEE, symObjAddr: 0x7B64, symBinAddr: 0x10000A6B8, symSize: 0x80 }
  - { offsetInCU: 0x168F3, offset: 0x168F3, size: 0x8, addend: 0x0, symName: __ZNKSt3__114__split_bufferIP8TreeNodeRNS_9allocatorIS2_EEE9__end_capB7v160006Ev, symObjAddr: 0x7BE4, symBinAddr: 0x10000A738, symSize: 0x28 }
  - { offsetInCU: 0x16919, offset: 0x16919, size: 0x8, addend: 0x0, symName: __ZNKSt3__117__compressed_pairIPP8TreeNodeRNS_9allocatorIS2_EEE5firstB7v160006Ev, symObjAddr: 0x7C0C, symBinAddr: 0x10000A760, symSize: 0x24 }
  - { offsetInCU: 0x1693F, offset: 0x1693F, size: 0x8, addend: 0x0, symName: __ZNSt3__15queueIP8TreeNodeNS_5dequeIS2_NS_9allocatorIS2_EEEEEC2B7v160006Ev, symObjAddr: 0x7C30, symBinAddr: 0x10000A784, symSize: 0x2C }
  - { offsetInCU: 0x16969, offset: 0x16969, size: 0x8, addend: 0x0, symName: __ZNSt3__15dequeIP8TreeNodeNS_9allocatorIS2_EEEC1B7v160006Ev, symObjAddr: 0x7C5C, symBinAddr: 0x10000A7B0, symSize: 0x2C }
  - { offsetInCU: 0x16993, offset: 0x16993, size: 0x8, addend: 0x0, symName: __ZNSt3__15dequeIP8TreeNodeNS_9allocatorIS2_EEEC2B7v160006Ev, symObjAddr: 0x7C88, symBinAddr: 0x10000A7DC, symSize: 0x50 }
  - { offsetInCU: 0x169BD, offset: 0x169BD, size: 0x8, addend: 0x0, symName: __ZNSt3__114__split_bufferIPP8TreeNodeNS_9allocatorIS3_EEEC1Ev, symObjAddr: 0x7CD8, symBinAddr: 0x10000A82C, symSize: 0x2C }
  - { offsetInCU: 0x169EE, offset: 0x169EE, size: 0x8, addend: 0x0, symName: __ZNSt3__117__compressed_pairImNS_9allocatorIP8TreeNodeEEEC1B7v160006IiNS_18__default_init_tagEEEOT_OT0_, symObjAddr: 0x7D04, symBinAddr: 0x10000A858, symSize: 0x3C }
  - { offsetInCU: 0x16A46, offset: 0x16A46, size: 0x8, addend: 0x0, symName: __ZNSt3__114__split_bufferIPP8TreeNodeNS_9allocatorIS3_EEEC2Ev, symObjAddr: 0x7D40, symBinAddr: 0x10000A894, symSize: 0x50 }
  - { offsetInCU: 0x16A72, offset: 0x16A72, size: 0x8, addend: 0x0, symName: __ZNSt3__117__compressed_pairIPPP8TreeNodeNS_9allocatorIS3_EEEC1B7v160006IDnNS_18__default_init_tagEEEOT_OT0_, symObjAddr: 0x7D90, symBinAddr: 0x10000A8E4, symSize: 0x3C }
  - { offsetInCU: 0x16ACA, offset: 0x16ACA, size: 0x8, addend: 0x0, symName: __ZNSt3__117__compressed_pairIPPP8TreeNodeNS_9allocatorIS3_EEEC2B7v160006IDnNS_18__default_init_tagEEEOT_OT0_, symObjAddr: 0x7DCC, symBinAddr: 0x10000A920, symSize: 0x40 }
  - { offsetInCU: 0x16B22, offset: 0x16B22, size: 0x8, addend: 0x0, symName: __ZNSt3__122__compressed_pair_elemIPPP8TreeNodeLi0ELb0EEC2B7v160006IDnvEEOT_, symObjAddr: 0x7E0C, symBinAddr: 0x10000A960, symSize: 0x1C }
  - { offsetInCU: 0x16B64, offset: 0x16B64, size: 0x8, addend: 0x0, symName: __ZNSt3__122__compressed_pair_elemINS_9allocatorIPP8TreeNodeEELi1ELb1EEC2B7v160006ENS_18__default_init_tagE, symObjAddr: 0x7E28, symBinAddr: 0x10000A97C, symSize: 0x2C }
  - { offsetInCU: 0x16B98, offset: 0x16B98, size: 0x8, addend: 0x0, symName: __ZNSt3__19allocatorIPP8TreeNodeEC2B7v160006Ev, symObjAddr: 0x7E54, symBinAddr: 0x10000A9A8, symSize: 0x2C }
  - { offsetInCU: 0x16BC2, offset: 0x16BC2, size: 0x8, addend: 0x0, symName: __ZNSt3__116__non_trivial_ifILb1ENS_9allocatorIPP8TreeNodeEEEC2B7v160006Ev, symObjAddr: 0x7E80, symBinAddr: 0x10000A9D4, symSize: 0x14 }
  - { offsetInCU: 0x16BEC, offset: 0x16BEC, size: 0x8, addend: 0x0, symName: __ZNSt3__117__compressed_pairImNS_9allocatorIP8TreeNodeEEEC2B7v160006IiNS_18__default_init_tagEEEOT_OT0_, symObjAddr: 0x7E94, symBinAddr: 0x10000A9E8, symSize: 0x40 }
  - { offsetInCU: 0x16C44, offset: 0x16C44, size: 0x8, addend: 0x0, symName: __ZNSt3__122__compressed_pair_elemImLi0ELb0EEC2B7v160006IivEEOT_, symObjAddr: 0x7ED4, symBinAddr: 0x10000AA28, symSize: 0x24 }
  - { offsetInCU: 0x16C86, offset: 0x16C86, size: 0x8, addend: 0x0, symName: __ZNSt3__15dequeIP8TreeNodeNS_9allocatorIS2_EEE9push_backERKS2_, symObjAddr: 0x7EF8, symBinAddr: 0x10000AA4C, symSize: 0xA0 }
  - { offsetInCU: 0x16CCC, offset: 0x16CCC, size: 0x8, addend: 0x0, symName: __ZNKSt3__15dequeIP8TreeNodeNS_9allocatorIS2_EEE12__back_spareB7v160006Ev, symObjAddr: 0x7F98, symBinAddr: 0x10000AAEC, symSize: 0x54 }
  - { offsetInCU: 0x16CF2, offset: 0x16CF2, size: 0x8, addend: 0x0, symName: __ZNSt3__15dequeIP8TreeNodeNS_9allocatorIS2_EEE19__add_back_capacityEv, symObjAddr: 0x7FEC, symBinAddr: 0x10000AB40, symSize: 0x314 }
  - { offsetInCU: 0x16DA7, offset: 0x16DA7, size: 0x8, addend: 0x0, symName: __ZNSt3__116allocator_traitsINS_9allocatorIP8TreeNodeEEE9constructB7v160006IS3_JRKS3_EvEEvRS4_PT_DpOT0_, symObjAddr: 0x8300, symBinAddr: 0x10000AE54, symSize: 0x34 }
  - { offsetInCU: 0x16DFE, offset: 0x16DFE, size: 0x8, addend: 0x0, symName: __ZNKSt3__15dequeIP8TreeNodeNS_9allocatorIS2_EEE10__capacityB7v160006Ev, symObjAddr: 0x8334, symBinAddr: 0x10000AE88, symSize: 0x60 }
  - { offsetInCU: 0x16E24, offset: 0x16E24, size: 0x8, addend: 0x0, symName: __ZNKSt3__15dequeIP8TreeNodeNS_9allocatorIS2_EEE13__front_spareB7v160006Ev, symObjAddr: 0x8394, symBinAddr: 0x10000AEE8, symSize: 0x18 }
  - { offsetInCU: 0x16E4A, offset: 0x16E4A, size: 0x8, addend: 0x0, symName: __ZNSt3__114__split_bufferIPP8TreeNodeNS_9allocatorIS3_EEE9push_backB7v160006ERKS3_, symObjAddr: 0x83AC, symBinAddr: 0x10000AF00, symSize: 0x260 }
  - { offsetInCU: 0x16EC2, offset: 0x16EC2, size: 0x8, addend: 0x0, symName: __ZNKSt3__114__split_bufferIPP8TreeNodeNS_9allocatorIS3_EEE12__back_spareB7v160006Ev, symObjAddr: 0x860C, symBinAddr: 0x10000B160, symSize: 0x40 }
  - { offsetInCU: 0x16EE8, offset: 0x16EE8, size: 0x8, addend: 0x0, symName: __ZNSt3__114__split_bufferIPP8TreeNodeNS_9allocatorIS3_EEE9push_backEOS3_, symObjAddr: 0x864C, symBinAddr: 0x10000B1A0, symSize: 0x260 }
  - { offsetInCU: 0x16F60, offset: 0x16F60, size: 0x8, addend: 0x0, symName: __ZNSt3__116allocator_traitsINS_9allocatorIP8TreeNodeEEE8allocateB7v160006ERS4_m, symObjAddr: 0x88AC, symBinAddr: 0x10000B400, symSize: 0x2C }
  - { offsetInCU: 0x16F93, offset: 0x16F93, size: 0x8, addend: 0x0, symName: __ZNSt3__114__split_bufferIPP8TreeNodeNS_9allocatorIS3_EEE10push_frontEOS3_, symObjAddr: 0x88D8, symBinAddr: 0x10000B42C, symSize: 0x25C }
  - { offsetInCU: 0x1700B, offset: 0x1700B, size: 0x8, addend: 0x0, symName: __ZNSt3__114__split_bufferIPP8TreeNodeRNS_9allocatorIS3_EEEC1EmmS6_, symObjAddr: 0x8B34, symBinAddr: 0x10000B688, symSize: 0x44 }
  - { offsetInCU: 0x17066, offset: 0x17066, size: 0x8, addend: 0x0, symName: __ZNSt3__122__allocator_destructorINS_9allocatorIP8TreeNodeEEEC1B7v160006ERS4_m, symObjAddr: 0x8B78, symBinAddr: 0x10000B6CC, symSize: 0x3C }
  - { offsetInCU: 0x17115, offset: 0x17115, size: 0x8, addend: 0x0, symName: __ZNSt3__110unique_ptrIPP8TreeNodeNS_22__allocator_destructorINS_9allocatorIS2_EEEEEC1B7v160006ILb1EvEES3_NS_16__dependent_typeINS_27__unique_ptr_deleter_sfinaeIS7_EEXT_EE20__good_rval_ref_typeE, symObjAddr: 0x8BB4, symBinAddr: 0x10000B708, symSize: 0x3C }
  - { offsetInCU: 0x17166, offset: 0x17166, size: 0x8, addend: 0x0, symName: __ZNSt3__114__split_bufferIPP8TreeNodeRNS_9allocatorIS3_EEE9push_backEOS3_, symObjAddr: 0x8BF0, symBinAddr: 0x10000B744, symSize: 0x260 }
  - { offsetInCU: 0x171DE, offset: 0x171DE, size: 0x8, addend: 0x0, symName: __ZNKSt3__110unique_ptrIPP8TreeNodeNS_22__allocator_destructorINS_9allocatorIS2_EEEEE3getB7v160006Ev, symObjAddr: 0x8E50, symBinAddr: 0x10000B9A4, symSize: 0x28 }
  - { offsetInCU: 0x17204, offset: 0x17204, size: 0x8, addend: 0x0, symName: __ZNSt3__110unique_ptrIPP8TreeNodeNS_22__allocator_destructorINS_9allocatorIS2_EEEEE7releaseB7v160006Ev, symObjAddr: 0x8E78, symBinAddr: 0x10000B9CC, symSize: 0x44 }
  - { offsetInCU: 0x17239, offset: 0x17239, size: 0x8, addend: 0x0, symName: __ZNSt3__114__split_bufferIPP8TreeNodeRNS_9allocatorIS3_EEE10push_frontERKS3_, symObjAddr: 0x8EBC, symBinAddr: 0x10000BA10, symSize: 0x25C }
  - { offsetInCU: 0x172B1, offset: 0x172B1, size: 0x8, addend: 0x0, symName: __ZNSt3__114__split_bufferIPP8TreeNodeNS_9allocatorIS3_EEE9__end_capB7v160006Ev, symObjAddr: 0x9154, symBinAddr: 0x10000BCA8, symSize: 0x28 }
  - { offsetInCU: 0x172D7, offset: 0x172D7, size: 0x8, addend: 0x0, symName: __ZNSt3__114__split_bufferIPP8TreeNodeRNS_9allocatorIS3_EEE9__end_capB7v160006Ev, symObjAddr: 0x917C, symBinAddr: 0x10000BCD0, symSize: 0x28 }
  - { offsetInCU: 0x172FD, offset: 0x172FD, size: 0x8, addend: 0x0, symName: __ZNSt3__110unique_ptrIPP8TreeNodeNS_22__allocator_destructorINS_9allocatorIS2_EEEEED1B7v160006Ev, symObjAddr: 0x91A4, symBinAddr: 0x10000BCF8, symSize: 0x2C }
  - { offsetInCU: 0x17327, offset: 0x17327, size: 0x8, addend: 0x0, symName: __ZNSt3__114__split_bufferIPP8TreeNodeRNS_9allocatorIS3_EEED1Ev, symObjAddr: 0x91D0, symBinAddr: 0x10000BD24, symSize: 0x2C }
  - { offsetInCU: 0x17353, offset: 0x17353, size: 0x8, addend: 0x0, symName: __ZNSt3__114__split_bufferIPP8TreeNodeRNS_9allocatorIS3_EEE18__construct_at_endINS_13move_iteratorIPS3_EEEENS_9enable_ifIXsr27__is_cpp17_forward_iteratorIT_EE5valueEvE4typeESD_SD_, symObjAddr: 0x923C, symBinAddr: 0x10000BD90, symSize: 0xFC }
  - { offsetInCU: 0x173AF, offset: 0x173AF, size: 0x8, addend: 0x0, symName: __ZNSt3__113move_iteratorIPPP8TreeNodeEC1B7v160006ES4_, symObjAddr: 0x9338, symBinAddr: 0x10000BE8C, symSize: 0x34 }
  - { offsetInCU: 0x173E7, offset: 0x173E7, size: 0x8, addend: 0x0, symName: __ZNSt3__116allocator_traitsINS_9allocatorIPP8TreeNodeEEE9constructB7v160006IS4_JRKS4_EvEEvRS5_PT_DpOT0_, symObjAddr: 0x936C, symBinAddr: 0x10000BEC0, symSize: 0x34 }
  - { offsetInCU: 0x17461, offset: 0x17461, size: 0x8, addend: 0x0, symName: __ZNKSt3__114__move_trivialclB7v160006IPP8TreeNodeS4_Li0EEENS_4pairIPT_PT0_EES7_S7_S9_, symObjAddr: 0x953C, symBinAddr: 0x10000C090, symSize: 0x48 }
  - { offsetInCU: 0x174CE, offset: 0x174CE, size: 0x8, addend: 0x0, symName: __ZNSt3__14pairIPPP8TreeNodeS4_EC1B7v160006IRS4_S4_LPv0EEEOT_OT0_, symObjAddr: 0x9704, symBinAddr: 0x10000C258, symSize: 0x3C }
  - { offsetInCU: 0x1752C, offset: 0x1752C, size: 0x8, addend: 0x0, symName: __ZNSt3__14pairIPPP8TreeNodeS4_EC2B7v160006IRS4_S4_LPv0EEEOT_OT0_, symObjAddr: 0x9740, symBinAddr: 0x10000C294, symSize: 0x34 }
  - { offsetInCU: 0x1758A, offset: 0x1758A, size: 0x8, addend: 0x0, symName: __ZNSt3__118__unwrap_iter_implIPPP8TreeNodeLb1EE8__unwrapB7v160006ES4_, symObjAddr: 0x9774, symBinAddr: 0x10000C2C8, symSize: 0x24 }
  - { offsetInCU: 0x175AD, offset: 0x175AD, size: 0x8, addend: 0x0, symName: __ZNSt3__14pairIPPP8TreeNodeS4_EC1B7v160006IS4_S4_LPv0EEEOT_OT0_, symObjAddr: 0x9798, symBinAddr: 0x10000C2EC, symSize: 0x3C }
  - { offsetInCU: 0x1760B, offset: 0x1760B, size: 0x8, addend: 0x0, symName: __ZNSt3__14pairIPPP8TreeNodeS4_EC2B7v160006IS4_S4_LPv0EEEOT_OT0_, symObjAddr: 0x97D4, symBinAddr: 0x10000C328, symSize: 0x34 }
  - { offsetInCU: 0x17669, offset: 0x17669, size: 0x8, addend: 0x0, symName: __ZNSt3__118__unwrap_iter_implIPPP8TreeNodeLb1EE8__rewrapB7v160006ES4_S4_, symObjAddr: 0x9808, symBinAddr: 0x10000C35C, symSize: 0x50 }
  - { offsetInCU: 0x176A4, offset: 0x176A4, size: 0x8, addend: 0x0, symName: __ZNSt3__114__split_bufferIPP8TreeNodeRNS_9allocatorIS3_EEE21_ConstructTransactionC1B7v160006EPPS3_m, symObjAddr: 0x9894, symBinAddr: 0x10000C3E8, symSize: 0x3C }
  - { offsetInCU: 0x176EA, offset: 0x176EA, size: 0x8, addend: 0x0, symName: __ZNSt3__116allocator_traitsINS_9allocatorIPP8TreeNodeEEE9constructB7v160006IS4_JS4_EvEEvRS5_PT_DpOT0_, symObjAddr: 0x98D0, symBinAddr: 0x10000C424, symSize: 0x34 }
  - { offsetInCU: 0x17741, offset: 0x17741, size: 0x8, addend: 0x0, symName: __ZNSt3__114__split_bufferIPP8TreeNodeRNS_9allocatorIS3_EEE7__allocB7v160006Ev, symObjAddr: 0x9904, symBinAddr: 0x10000C458, symSize: 0x28 }
  - { offsetInCU: 0x17767, offset: 0x17767, size: 0x8, addend: 0x0, symName: __ZNKSt3__113move_iteratorIPPP8TreeNodeEdeB7v160006Ev, symObjAddr: 0x992C, symBinAddr: 0x10000C480, symSize: 0x18 }
  - { offsetInCU: 0x1778D, offset: 0x1778D, size: 0x8, addend: 0x0, symName: __ZNSt3__113move_iteratorIPPP8TreeNodeEppB7v160006Ev, symObjAddr: 0x9944, symBinAddr: 0x10000C498, symSize: 0x20 }
  - { offsetInCU: 0x177B3, offset: 0x177B3, size: 0x8, addend: 0x0, symName: __ZNSt3__114__split_bufferIPP8TreeNodeRNS_9allocatorIS3_EEE21_ConstructTransactionD1B7v160006Ev, symObjAddr: 0x9964, symBinAddr: 0x10000C4B8, symSize: 0x2C }
  - { offsetInCU: 0x177DD, offset: 0x177DD, size: 0x8, addend: 0x0, symName: __ZNKSt3__113move_iteratorIPPP8TreeNodeE4baseB7v160006Ev, symObjAddr: 0x9A08, symBinAddr: 0x10000C55C, symSize: 0x18 }
  - { offsetInCU: 0x17803, offset: 0x17803, size: 0x8, addend: 0x0, symName: __ZNSt3__114__split_bufferIPP8TreeNodeRNS_9allocatorIS3_EEE21_ConstructTransactionC2B7v160006EPPS3_m, symObjAddr: 0x9A20, symBinAddr: 0x10000C574, symSize: 0x44 }
  - { offsetInCU: 0x17849, offset: 0x17849, size: 0x8, addend: 0x0, symName: __ZNSt3__19allocatorIPP8TreeNodeE9constructB7v160006IS3_JS3_EEEvPT_DpOT0_, symObjAddr: 0x9A64, symBinAddr: 0x10000C5B8, symSize: 0x28 }
  - { offsetInCU: 0x1789F, offset: 0x1789F, size: 0x8, addend: 0x0, symName: __ZNSt3__117__compressed_pairIPPP8TreeNodeRNS_9allocatorIS3_EEE6secondB7v160006Ev, symObjAddr: 0x9A8C, symBinAddr: 0x10000C5E0, symSize: 0x28 }
  - { offsetInCU: 0x178C5, offset: 0x178C5, size: 0x8, addend: 0x0, symName: __ZNSt3__122__compressed_pair_elemIRNS_9allocatorIPP8TreeNodeEELi1ELb0EE5__getB7v160006Ev, symObjAddr: 0x9AB4, symBinAddr: 0x10000C608, symSize: 0x18 }
  - { offsetInCU: 0x178EB, offset: 0x178EB, size: 0x8, addend: 0x0, symName: __ZNSt3__114__split_bufferIPP8TreeNodeRNS_9allocatorIS3_EEE21_ConstructTransactionD2B7v160006Ev, symObjAddr: 0x9ACC, symBinAddr: 0x10000C620, symSize: 0x20 }
  - { offsetInCU: 0x17915, offset: 0x17915, size: 0x8, addend: 0x0, symName: __ZNSt3__113move_iteratorIPPP8TreeNodeEC2B7v160006ES4_, symObjAddr: 0x9AEC, symBinAddr: 0x10000C640, symSize: 0x20 }
  - { offsetInCU: 0x1794D, offset: 0x1794D, size: 0x8, addend: 0x0, symName: __ZNSt3__19allocatorIPP8TreeNodeE9constructB7v160006IS3_JRKS3_EEEvPT_DpOT0_, symObjAddr: 0x9B0C, symBinAddr: 0x10000C660, symSize: 0x28 }
  - { offsetInCU: 0x179AD, offset: 0x179AD, size: 0x8, addend: 0x0, symName: __ZNKSt3__123__move_backward_trivialclB7v160006IPP8TreeNodeS4_Li0EEENS_4pairIPT_PT0_EES7_S7_S9_, symObjAddr: 0x9CB0, symBinAddr: 0x10000C804, symSize: 0x48 }
  - { offsetInCU: 0x17A15, offset: 0x17A15, size: 0x8, addend: 0x0, symName: __ZNSt3__14pairIPPP8TreeNodeS4_EC1B7v160006IRS4_S7_LPv0EEEOT_OT0_, symObjAddr: 0x9DC4, symBinAddr: 0x10000C918, symSize: 0x3C }
  - { offsetInCU: 0x17A73, offset: 0x17A73, size: 0x8, addend: 0x0, symName: __ZNSt3__14pairIPPP8TreeNodeS4_EC2B7v160006IRS4_S7_LPv0EEEOT_OT0_, symObjAddr: 0x9E00, symBinAddr: 0x10000C954, symSize: 0x34 }
  - { offsetInCU: 0x17AD1, offset: 0x17AD1, size: 0x8, addend: 0x0, symName: __ZNSt3__114__split_bufferIPP8TreeNodeRNS_9allocatorIS3_EEEC2EmmS6_, symObjAddr: 0x9E34, symBinAddr: 0x10000C988, symSize: 0xD4 }
  - { offsetInCU: 0x17B44, offset: 0x17B44, size: 0x8, addend: 0x0, symName: __ZNSt3__117__compressed_pairIPPP8TreeNodeRNS_9allocatorIS3_EEEC1B7v160006IDnS7_EEOT_OT0_, symObjAddr: 0x9F08, symBinAddr: 0x10000CA5C, symSize: 0x3C }
  - { offsetInCU: 0x17B9C, offset: 0x17B9C, size: 0x8, addend: 0x0, symName: __ZNSt3__117__compressed_pairIPPP8TreeNodeRNS_9allocatorIS3_EEEC2B7v160006IDnS7_EEOT_OT0_, symObjAddr: 0x9F84, symBinAddr: 0x10000CAD8, symSize: 0x48 }
  - { offsetInCU: 0x17BF4, offset: 0x17BF4, size: 0x8, addend: 0x0, symName: __ZNSt3__122__compressed_pair_elemIRNS_9allocatorIPP8TreeNodeEELi1ELb0EEC2B7v160006IS6_vEEOT_, symObjAddr: 0x9FCC, symBinAddr: 0x10000CB20, symSize: 0x20 }
  - { offsetInCU: 0x17C36, offset: 0x17C36, size: 0x8, addend: 0x0, symName: __ZNSt3__19allocatorIPP8TreeNodeE8allocateB7v160006Em, symObjAddr: 0x9FEC, symBinAddr: 0x10000CB40, symSize: 0x58 }
  - { offsetInCU: 0x17C74, offset: 0x17C74, size: 0x8, addend: 0x0, symName: __ZNSt3__116allocator_traitsINS_9allocatorIPP8TreeNodeEEE8max_sizeB7v160006IS5_vEEmRKS5_, symObjAddr: 0xA044, symBinAddr: 0x10000CB98, symSize: 0x24 }
  - { offsetInCU: 0x17CA2, offset: 0x17CA2, size: 0x8, addend: 0x0, symName: __ZNKSt3__19allocatorIPP8TreeNodeE8max_sizeB7v160006Ev, symObjAddr: 0xA068, symBinAddr: 0x10000CBBC, symSize: 0x14 }
  - { offsetInCU: 0x17CC8, offset: 0x17CC8, size: 0x8, addend: 0x0, symName: __ZNSt3__122__allocator_destructorINS_9allocatorIP8TreeNodeEEEC2B7v160006ERS4_m, symObjAddr: 0xA07C, symBinAddr: 0x10000CBD0, symSize: 0x2C }
  - { offsetInCU: 0x17D0E, offset: 0x17D0E, size: 0x8, addend: 0x0, symName: __ZNSt3__110unique_ptrIPP8TreeNodeNS_22__allocator_destructorINS_9allocatorIS2_EEEEEC2B7v160006ILb1EvEES3_NS_16__dependent_typeINS_27__unique_ptr_deleter_sfinaeIS7_EEXT_EE20__good_rval_ref_typeE, symObjAddr: 0xA0A8, symBinAddr: 0x10000CBFC, symSize: 0x48 }
  - { offsetInCU: 0x17D5F, offset: 0x17D5F, size: 0x8, addend: 0x0, symName: __ZNSt3__117__compressed_pairIPP8TreeNodeNS_22__allocator_destructorINS_9allocatorIS2_EEEEEC1B7v160006IRS3_S7_EEOT_OT0_, symObjAddr: 0xA0F0, symBinAddr: 0x10000CC44, symSize: 0x3C }
  - { offsetInCU: 0x17DB7, offset: 0x17DB7, size: 0x8, addend: 0x0, symName: __ZNSt3__117__compressed_pairIPP8TreeNodeNS_22__allocator_destructorINS_9allocatorIS2_EEEEEC2B7v160006IRS3_S7_EEOT_OT0_, symObjAddr: 0xA12C, symBinAddr: 0x10000CC80, symSize: 0x48 }
  - { offsetInCU: 0x17E0F, offset: 0x17E0F, size: 0x8, addend: 0x0, symName: __ZNSt3__122__compressed_pair_elemIPP8TreeNodeLi0ELb0EEC2B7v160006IRS3_vEEOT_, symObjAddr: 0xA174, symBinAddr: 0x10000CCC8, symSize: 0x24 }
  - { offsetInCU: 0x17E51, offset: 0x17E51, size: 0x8, addend: 0x0, symName: __ZNSt3__122__compressed_pair_elemINS_22__allocator_destructorINS_9allocatorIP8TreeNodeEEEELi1ELb0EEC2B7v160006IS6_vEEOT_, symObjAddr: 0xA198, symBinAddr: 0x10000CCEC, symSize: 0x24 }
  - { offsetInCU: 0x17E93, offset: 0x17E93, size: 0x8, addend: 0x0, symName: __ZNKSt3__117__compressed_pairIPP8TreeNodeNS_22__allocator_destructorINS_9allocatorIS2_EEEEE5firstB7v160006Ev, symObjAddr: 0xA1BC, symBinAddr: 0x10000CD10, symSize: 0x24 }
  - { offsetInCU: 0x17EB9, offset: 0x17EB9, size: 0x8, addend: 0x0, symName: __ZNSt3__117__compressed_pairIPP8TreeNodeNS_22__allocator_destructorINS_9allocatorIS2_EEEEE5firstB7v160006Ev, symObjAddr: 0xA1E0, symBinAddr: 0x10000CD34, symSize: 0x24 }
  - { offsetInCU: 0x17EDF, offset: 0x17EDF, size: 0x8, addend: 0x0, symName: __ZNSt3__117__compressed_pairIPPP8TreeNodeNS_9allocatorIS3_EEE5firstB7v160006Ev, symObjAddr: 0xA204, symBinAddr: 0x10000CD58, symSize: 0x24 }
  - { offsetInCU: 0x17F05, offset: 0x17F05, size: 0x8, addend: 0x0, symName: __ZNSt3__122__compressed_pair_elemIPPP8TreeNodeLi0ELb0EE5__getB7v160006Ev, symObjAddr: 0xA228, symBinAddr: 0x10000CD7C, symSize: 0x14 }
  - { offsetInCU: 0x17F2B, offset: 0x17F2B, size: 0x8, addend: 0x0, symName: __ZNSt3__117__compressed_pairIPPP8TreeNodeRNS_9allocatorIS3_EEE5firstB7v160006Ev, symObjAddr: 0xA23C, symBinAddr: 0x10000CD90, symSize: 0x24 }
  - { offsetInCU: 0x17F51, offset: 0x17F51, size: 0x8, addend: 0x0, symName: __ZNSt3__110unique_ptrIPP8TreeNodeNS_22__allocator_destructorINS_9allocatorIS2_EEEEED2B7v160006Ev, symObjAddr: 0xA260, symBinAddr: 0x10000CDB4, symSize: 0x30 }
  - { offsetInCU: 0x17F7B, offset: 0x17F7B, size: 0x8, addend: 0x0, symName: __ZNSt3__110unique_ptrIPP8TreeNodeNS_22__allocator_destructorINS_9allocatorIS2_EEEEE5resetB7v160006ES3_, symObjAddr: 0xA290, symBinAddr: 0x10000CDE4, symSize: 0x78 }
  - { offsetInCU: 0x17FBF, offset: 0x17FBF, size: 0x8, addend: 0x0, symName: __ZNSt3__117__compressed_pairIPP8TreeNodeNS_22__allocator_destructorINS_9allocatorIS2_EEEEE6secondB7v160006Ev, symObjAddr: 0xA308, symBinAddr: 0x10000CE5C, symSize: 0x28 }
  - { offsetInCU: 0x17FE5, offset: 0x17FE5, size: 0x8, addend: 0x0, symName: __ZNSt3__122__allocator_destructorINS_9allocatorIP8TreeNodeEEEclB7v160006EPS3_, symObjAddr: 0xA330, symBinAddr: 0x10000CE84, symSize: 0x34 }
  - { offsetInCU: 0x18019, offset: 0x18019, size: 0x8, addend: 0x0, symName: __ZNSt3__122__compressed_pair_elemINS_22__allocator_destructorINS_9allocatorIP8TreeNodeEEEELi1ELb0EE5__getB7v160006Ev, symObjAddr: 0xA364, symBinAddr: 0x10000CEB8, symSize: 0x14 }
  - { offsetInCU: 0x1803F, offset: 0x1803F, size: 0x8, addend: 0x0, symName: __ZNSt3__114__split_bufferIPP8TreeNodeRNS_9allocatorIS3_EEED2Ev, symObjAddr: 0xA378, symBinAddr: 0x10000CECC, symSize: 0x8C }
  - { offsetInCU: 0x1806B, offset: 0x1806B, size: 0x8, addend: 0x0, symName: __ZNSt3__114__split_bufferIPP8TreeNodeRNS_9allocatorIS3_EEE5clearB7v160006Ev, symObjAddr: 0xA404, symBinAddr: 0x10000CF58, symSize: 0x28 }
  - { offsetInCU: 0x18091, offset: 0x18091, size: 0x8, addend: 0x0, symName: __ZNKSt3__114__split_bufferIPP8TreeNodeRNS_9allocatorIS3_EEE8capacityB7v160006Ev, symObjAddr: 0xA42C, symBinAddr: 0x10000CF80, symSize: 0x40 }
  - { offsetInCU: 0x180B7, offset: 0x180B7, size: 0x8, addend: 0x0, symName: __ZNSt3__114__split_bufferIPP8TreeNodeRNS_9allocatorIS3_EEE17__destruct_at_endB7v160006EPS3_, symObjAddr: 0xA46C, symBinAddr: 0x10000CFC0, symSize: 0x2C }
  - { offsetInCU: 0x180EB, offset: 0x180EB, size: 0x8, addend: 0x0, symName: __ZNSt3__114__split_bufferIPP8TreeNodeRNS_9allocatorIS3_EEE17__destruct_at_endB7v160006EPS3_NS_17integral_constantIbLb0EEE, symObjAddr: 0xA498, symBinAddr: 0x10000CFEC, symSize: 0x80 }
  - { offsetInCU: 0x1812B, offset: 0x1812B, size: 0x8, addend: 0x0, symName: __ZNKSt3__114__split_bufferIPP8TreeNodeRNS_9allocatorIS3_EEE9__end_capB7v160006Ev, symObjAddr: 0xA518, symBinAddr: 0x10000D06C, symSize: 0x28 }
  - { offsetInCU: 0x18151, offset: 0x18151, size: 0x8, addend: 0x0, symName: __ZNKSt3__117__compressed_pairIPPP8TreeNodeRNS_9allocatorIS3_EEE5firstB7v160006Ev, symObjAddr: 0xA540, symBinAddr: 0x10000D094, symSize: 0x24 }
  - { offsetInCU: 0x18177, offset: 0x18177, size: 0x8, addend: 0x0, symName: __ZNSt3__19allocatorIP8TreeNodeE9constructB7v160006IS2_JRKS2_EEEvPT_DpOT0_, symObjAddr: 0xA564, symBinAddr: 0x10000D0B8, symSize: 0x28 }
  - { offsetInCU: 0x181CD, offset: 0x181CD, size: 0x8, addend: 0x0, symName: __ZNSt3__15dequeIP8TreeNodeNS_9allocatorIS2_EEE5frontEv, symObjAddr: 0xA58C, symBinAddr: 0x10000D0E0, symSize: 0x50 }
  - { offsetInCU: 0x181F5, offset: 0x181F5, size: 0x8, addend: 0x0, symName: __ZNSt3__15dequeIP8TreeNodeNS_9allocatorIS2_EEE9pop_frontEv, symObjAddr: 0xA5DC, symBinAddr: 0x10000D130, symSize: 0xAC }
  - { offsetInCU: 0x1822C, offset: 0x1822C, size: 0x8, addend: 0x0, symName: __ZNSt3__15dequeIP8TreeNodeNS_9allocatorIS2_EEE26__maybe_remove_front_spareB7v160006Eb, symObjAddr: 0xA688, symBinAddr: 0x10000D1DC, symSize: 0xDC }
  - { offsetInCU: 0x18261, offset: 0x18261, size: 0x8, addend: 0x0, symName: __ZNKSt3__15dequeIP8TreeNodeNS_9allocatorIS2_EEE20__front_spare_blocksB7v160006Ev, symObjAddr: 0xA764, symBinAddr: 0x10000D2B8, symSize: 0x2C }
  - { offsetInCU: 0x182A5, offset: 0x182A5, size: 0x8, addend: 0x0, symName: __ZNKSt3__113basic_ostreamIcNS_11char_traitsIcEEE6sentrycvbB7v160006Ev, symObjAddr: 0xA97C, symBinAddr: 0x10000D4D0, symSize: 0x1C }
  - { offsetInCU: 0x182CB, offset: 0x182CB, size: 0x8, addend: 0x0, symName: __ZNSt3__119ostreambuf_iteratorIcNS_11char_traitsIcEEEC1B7v160006ERNS_13basic_ostreamIcS2_EE, symObjAddr: 0xABD8, symBinAddr: 0x10000D72C, symSize: 0x34 }
  - { offsetInCU: 0x18303, offset: 0x18303, size: 0x8, addend: 0x0, symName: __ZNKSt3__18ios_base5flagsB7v160006Ev, symObjAddr: 0xAC0C, symBinAddr: 0x10000D760, symSize: 0x18 }
  - { offsetInCU: 0x1832B, offset: 0x1832B, size: 0x8, addend: 0x0, symName: __ZNKSt3__19basic_iosIcNS_11char_traitsIcEEE4fillB7v160006Ev, symObjAddr: 0xAC24, symBinAddr: 0x10000D778, symSize: 0x64 }
  - { offsetInCU: 0x18353, offset: 0x18353, size: 0x8, addend: 0x0, symName: __ZNKSt3__119ostreambuf_iteratorIcNS_11char_traitsIcEEE6failedB7v160006Ev, symObjAddr: 0xAC88, symBinAddr: 0x10000D7DC, symSize: 0x24 }
  - { offsetInCU: 0x18379, offset: 0x18379, size: 0x8, addend: 0x0, symName: __ZNSt3__19basic_iosIcNS_11char_traitsIcEEE8setstateB7v160006Ej, symObjAddr: 0xACAC, symBinAddr: 0x10000D800, symSize: 0x2C }
  - { offsetInCU: 0x183AE, offset: 0x183AE, size: 0x8, addend: 0x0, symName: __ZNKSt3__18ios_base5widthB7v160006Ev, symObjAddr: 0xACD8, symBinAddr: 0x10000D82C, symSize: 0x18 }
  - { offsetInCU: 0x183D6, offset: 0x183D6, size: 0x8, addend: 0x0, symName: __ZNSt3__115basic_streambufIcNS_11char_traitsIcEEE5sputnB7v160006EPKcl, symObjAddr: 0xACF0, symBinAddr: 0x10000D844, symSize: 0x3C }
  - { offsetInCU: 0x18418, offset: 0x18418, size: 0x8, addend: 0x0, symName: __ZNSt3__112basic_stringIcNS_11char_traitsIcEENS_9allocatorIcEEEC1B7v160006Emc, symObjAddr: 0xAD2C, symBinAddr: 0x10000D880, symSize: 0x3C }
  - { offsetInCU: 0x18460, offset: 0x18460, size: 0x8, addend: 0x0, symName: __ZNSt3__18ios_base5widthB7v160006El, symObjAddr: 0xAD68, symBinAddr: 0x10000D8BC, symSize: 0x2C }
  - { offsetInCU: 0x184A6, offset: 0x184A6, size: 0x8, addend: 0x0, symName: __ZNSt3__112basic_stringIcNS_11char_traitsIcEENS_9allocatorIcEEEC2B7v160006Emc, symObjAddr: 0xAD94, symBinAddr: 0x10000D8E8, symSize: 0x54 }
  - { offsetInCU: 0x184EE, offset: 0x184EE, size: 0x8, addend: 0x0, symName: __ZNSt3__119ostreambuf_iteratorIcNS_11char_traitsIcEEEC2B7v160006ERNS_13basic_ostreamIcS2_EE, symObjAddr: 0xADE8, symBinAddr: 0x10000D93C, symSize: 0x54 }
  - { offsetInCU: 0x18526, offset: 0x18526, size: 0x8, addend: 0x0, symName: __ZNKSt3__19basic_iosIcNS_11char_traitsIcEEE5rdbufB7v160006Ev, symObjAddr: 0xAE3C, symBinAddr: 0x10000D990, symSize: 0x24 }
  - { offsetInCU: 0x1854E, offset: 0x1854E, size: 0x8, addend: 0x0, symName: __ZNKSt3__18ios_base5rdbufB7v160006Ev, symObjAddr: 0xAE60, symBinAddr: 0x10000D9B4, symSize: 0x18 }
  - { offsetInCU: 0x18574, offset: 0x18574, size: 0x8, addend: 0x0, symName: __ZNSt3__111char_traitsIcE11eq_int_typeEii, symObjAddr: 0xAE78, symBinAddr: 0x10000D9CC, symSize: 0x28 }
  - { offsetInCU: 0x185A5, offset: 0x185A5, size: 0x8, addend: 0x0, symName: __ZNSt3__111char_traitsIcE3eofEv, symObjAddr: 0xAEA0, symBinAddr: 0x10000D9F4, symSize: 0x8 }
  - { offsetInCU: 0x185B9, offset: 0x185B9, size: 0x8, addend: 0x0, symName: __ZNKSt3__19basic_iosIcNS_11char_traitsIcEEE5widenB7v160006Ec, symObjAddr: 0xAEA8, symBinAddr: 0x10000D9FC, symSize: 0x84 }
  - { offsetInCU: 0x18627, offset: 0x18627, size: 0x8, addend: 0x0, symName: __ZNKSt3__15ctypeIcE5widenB7v160006Ec, symObjAddr: 0xAF58, symBinAddr: 0x10000DAAC, symSize: 0x38 }
  - { offsetInCU: 0x1865C, offset: 0x1865C, size: 0x8, addend: 0x0, symName: __ZNSt3__18ios_base8setstateB7v160006Ej, symObjAddr: 0xAF90, symBinAddr: 0x10000DAE4, symSize: 0x34 }
  - { offsetInCU: 0x18693, offset: 0x18693, size: 0x8, addend: 0x0, symName: __ZNSt3__15dequeIP8TreeNodeNS_9allocatorIS2_EEE9push_backEOS2_, symObjAddr: 0xAFC4, symBinAddr: 0x10000DB18, symSize: 0xA0 }
  - { offsetInCU: 0x186D9, offset: 0x186D9, size: 0x8, addend: 0x0, symName: __ZNKSt3__15dequeIP8TreeNodeNS_9allocatorIS2_EEE5emptyB7v160006Ev, symObjAddr: 0xB064, symBinAddr: 0x10000DBB8, symSize: 0x30 }
  - { offsetInCU: 0x186FF, offset: 0x186FF, size: 0x8, addend: 0x0, symName: __ZNSt3__16vectorIiNS_9allocatorIiEEEC2B7v160006ESt16initializer_listIiE, symObjAddr: 0xB094, symBinAddr: 0x10000DBE8, symSize: 0x124 }
  - { offsetInCU: 0x18750, offset: 0x18750, size: 0x8, addend: 0x0, symName: __ZNSt3__117__compressed_pairIPiNS_9allocatorIiEEEC1B7v160006IDnNS_18__default_init_tagEEEOT_OT0_, symObjAddr: 0xB1B8, symBinAddr: 0x10000DD0C, symSize: 0x3C }
  - { offsetInCU: 0x187A8, offset: 0x187A8, size: 0x8, addend: 0x0, symName: __ZNSt3__16vectorIiNS_9allocatorIiEEE16__destroy_vectorC1ERS3_, symObjAddr: 0xB234, symBinAddr: 0x10000DD88, symSize: 0x34 }
  - { offsetInCU: 0x187E1, offset: 0x187E1, size: 0x8, addend: 0x0, symName: __ZNKSt16initializer_listIiE4sizeB7v160006Ev, symObjAddr: 0xB278, symBinAddr: 0x10000DDCC, symSize: 0x18 }
  - { offsetInCU: 0x18807, offset: 0x18807, size: 0x8, addend: 0x0, symName: __ZNSt3__16vectorIiNS_9allocatorIiEEE11__vallocateB7v160006Em, symObjAddr: 0xB290, symBinAddr: 0x10000DDE4, symSize: 0xAC }
  - { offsetInCU: 0x1884B, offset: 0x1884B, size: 0x8, addend: 0x0, symName: __ZNSt3__16vectorIiNS_9allocatorIiEEE18__construct_at_endIPKiLi0EEEvT_S7_m, symObjAddr: 0xB33C, symBinAddr: 0x10000DE90, symSize: 0x8C }
  - { offsetInCU: 0x188BE, offset: 0x188BE, size: 0x8, addend: 0x0, symName: __ZNKSt16initializer_listIiE5beginB7v160006Ev, symObjAddr: 0xB3C8, symBinAddr: 0x10000DF1C, symSize: 0x18 }
  - { offsetInCU: 0x188E4, offset: 0x188E4, size: 0x8, addend: 0x0, symName: __ZNKSt16initializer_listIiE3endB7v160006Ev, symObjAddr: 0xB3E0, symBinAddr: 0x10000DF34, symSize: 0x20 }
  - { offsetInCU: 0x1890A, offset: 0x1890A, size: 0x8, addend: 0x0, symName: __ZNSt3__128__exception_guard_exceptionsINS_6vectorIiNS_9allocatorIiEEE16__destroy_vectorEE10__completeB7v160006Ev, symObjAddr: 0xB400, symBinAddr: 0x10000DF54, symSize: 0x1C }
  - { offsetInCU: 0x18930, offset: 0x18930, size: 0x8, addend: 0x0, symName: __ZNSt3__128__exception_guard_exceptionsINS_6vectorIiNS_9allocatorIiEEE16__destroy_vectorEED1B7v160006Ev, symObjAddr: 0xB41C, symBinAddr: 0x10000DF70, symSize: 0x2C }
  - { offsetInCU: 0x1895A, offset: 0x1895A, size: 0x8, addend: 0x0, symName: __ZNSt3__117__compressed_pairIPiNS_9allocatorIiEEEC2B7v160006IDnNS_18__default_init_tagEEEOT_OT0_, symObjAddr: 0xB448, symBinAddr: 0x10000DF9C, symSize: 0x40 }
  - { offsetInCU: 0x189B2, offset: 0x189B2, size: 0x8, addend: 0x0, symName: __ZNSt3__122__compressed_pair_elemIPiLi0ELb0EEC2B7v160006IDnvEEOT_, symObjAddr: 0xB488, symBinAddr: 0x10000DFDC, symSize: 0x1C }
  - { offsetInCU: 0x189F4, offset: 0x189F4, size: 0x8, addend: 0x0, symName: __ZNSt3__122__compressed_pair_elemINS_9allocatorIiEELi1ELb1EEC2B7v160006ENS_18__default_init_tagE, symObjAddr: 0xB4A4, symBinAddr: 0x10000DFF8, symSize: 0x2C }
  - { offsetInCU: 0x18A28, offset: 0x18A28, size: 0x8, addend: 0x0, symName: __ZNSt3__19allocatorIiEC2B7v160006Ev, symObjAddr: 0xB4D0, symBinAddr: 0x10000E024, symSize: 0x2C }
  - { offsetInCU: 0x18A52, offset: 0x18A52, size: 0x8, addend: 0x0, symName: __ZNSt3__116__non_trivial_ifILb1ENS_9allocatorIiEEEC2B7v160006Ev, symObjAddr: 0xB4FC, symBinAddr: 0x10000E050, symSize: 0x14 }
  - { offsetInCU: 0x18A7C, offset: 0x18A7C, size: 0x8, addend: 0x0, symName: __ZNSt3__128__exception_guard_exceptionsINS_6vectorIiNS_9allocatorIiEEE16__destroy_vectorEEC1B7v160006ES5_, symObjAddr: 0xB510, symBinAddr: 0x10000E064, symSize: 0x34 }
  - { offsetInCU: 0x18AB4, offset: 0x18AB4, size: 0x8, addend: 0x0, symName: __ZNSt3__128__exception_guard_exceptionsINS_6vectorIiNS_9allocatorIiEEE16__destroy_vectorEEC2B7v160006ES5_, symObjAddr: 0xB544, symBinAddr: 0x10000E098, symSize: 0x24 }
  - { offsetInCU: 0x18AEC, offset: 0x18AEC, size: 0x8, addend: 0x0, symName: __ZNSt3__16vectorIiNS_9allocatorIiEEE16__destroy_vectorC2ERS3_, symObjAddr: 0xB568, symBinAddr: 0x10000E0BC, symSize: 0x20 }
  - { offsetInCU: 0x18B25, offset: 0x18B25, size: 0x8, addend: 0x0, symName: __ZNKSt3__16vectorIiNS_9allocatorIiEEE8max_sizeEv, symObjAddr: 0xB588, symBinAddr: 0x10000E0DC, symSize: 0x60 }
  - { offsetInCU: 0x18B4D, offset: 0x18B4D, size: 0x8, addend: 0x0, symName: __ZNKSt3__16vectorIiNS_9allocatorIiEEE20__throw_length_errorB7v160006Ev, symObjAddr: 0xB5E8, symBinAddr: 0x10000E13C, symSize: 0x1C }
  - { offsetInCU: 0x18B73, offset: 0x18B73, size: 0x8, addend: 0x0, symName: __ZNSt3__16vectorIiNS_9allocatorIiEEE7__allocB7v160006Ev, symObjAddr: 0xB644, symBinAddr: 0x10000E198, symSize: 0x28 }
  - { offsetInCU: 0x18B99, offset: 0x18B99, size: 0x8, addend: 0x0, symName: __ZNSt3__16vectorIiNS_9allocatorIiEEE9__end_capB7v160006Ev, symObjAddr: 0xB66C, symBinAddr: 0x10000E1C0, symSize: 0x28 }
  - { offsetInCU: 0x18BBF, offset: 0x18BBF, size: 0x8, addend: 0x0, symName: __ZNKSt3__16vectorIiNS_9allocatorIiEEE14__annotate_newB7v160006Em, symObjAddr: 0xB694, symBinAddr: 0x10000E1E8, symSize: 0xAC }
  - { offsetInCU: 0x18BFE, offset: 0x18BFE, size: 0x8, addend: 0x0, symName: __ZNSt3__116allocator_traitsINS_9allocatorIiEEE8max_sizeB7v160006IS2_vEEmRKS2_, symObjAddr: 0xB740, symBinAddr: 0x10000E294, symSize: 0x24 }
  - { offsetInCU: 0x18C2C, offset: 0x18C2C, size: 0x8, addend: 0x0, symName: __ZNKSt3__16vectorIiNS_9allocatorIiEEE7__allocB7v160006Ev, symObjAddr: 0xB764, symBinAddr: 0x10000E2B8, symSize: 0x28 }
  - { offsetInCU: 0x18C52, offset: 0x18C52, size: 0x8, addend: 0x0, symName: __ZNKSt3__19allocatorIiE8max_sizeB7v160006Ev, symObjAddr: 0xB78C, symBinAddr: 0x10000E2E0, symSize: 0x14 }
  - { offsetInCU: 0x18C78, offset: 0x18C78, size: 0x8, addend: 0x0, symName: __ZNKSt3__117__compressed_pairIPiNS_9allocatorIiEEE6secondB7v160006Ev, symObjAddr: 0xB7A0, symBinAddr: 0x10000E2F4, symSize: 0x24 }
  - { offsetInCU: 0x18C9E, offset: 0x18C9E, size: 0x8, addend: 0x0, symName: __ZNKSt3__122__compressed_pair_elemINS_9allocatorIiEELi1ELb1EE5__getB7v160006Ev, symObjAddr: 0xB7C4, symBinAddr: 0x10000E318, symSize: 0x14 }
  - { offsetInCU: 0x18CC4, offset: 0x18CC4, size: 0x8, addend: 0x0, symName: __ZNSt3__19allocatorIiE8allocateB7v160006Em, symObjAddr: 0xB7D8, symBinAddr: 0x10000E32C, symSize: 0x58 }
  - { offsetInCU: 0x18CF8, offset: 0x18CF8, size: 0x8, addend: 0x0, symName: __ZNSt3__117__compressed_pairIPiNS_9allocatorIiEEE6secondB7v160006Ev, symObjAddr: 0xB830, symBinAddr: 0x10000E384, symSize: 0x24 }
  - { offsetInCU: 0x18D1E, offset: 0x18D1E, size: 0x8, addend: 0x0, symName: __ZNSt3__122__compressed_pair_elemINS_9allocatorIiEELi1ELb1EE5__getB7v160006Ev, symObjAddr: 0xB854, symBinAddr: 0x10000E3A8, symSize: 0x14 }
  - { offsetInCU: 0x18D44, offset: 0x18D44, size: 0x8, addend: 0x0, symName: __ZNSt3__117__compressed_pairIPiNS_9allocatorIiEEE5firstB7v160006Ev, symObjAddr: 0xB868, symBinAddr: 0x10000E3BC, symSize: 0x24 }
  - { offsetInCU: 0x18D6A, offset: 0x18D6A, size: 0x8, addend: 0x0, symName: __ZNSt3__122__compressed_pair_elemIPiLi0ELb0EE5__getB7v160006Ev, symObjAddr: 0xB88C, symBinAddr: 0x10000E3E0, symSize: 0x14 }
  - { offsetInCU: 0x18D90, offset: 0x18D90, size: 0x8, addend: 0x0, symName: __ZNKSt3__16vectorIiNS_9allocatorIiEEE31__annotate_contiguous_containerB7v160006EPKvS5_S5_S5_, symObjAddr: 0xB8A0, symBinAddr: 0x10000E3F4, symSize: 0x20 }
  - { offsetInCU: 0x18DE2, offset: 0x18DE2, size: 0x8, addend: 0x0, symName: __ZNKSt3__16vectorIiNS_9allocatorIiEEE4dataB7v160006Ev, symObjAddr: 0xB8C0, symBinAddr: 0x10000E414, symSize: 0x28 }
  - { offsetInCU: 0x18E08, offset: 0x18E08, size: 0x8, addend: 0x0, symName: __ZNKSt3__16vectorIiNS_9allocatorIiEEE8capacityB7v160006Ev, symObjAddr: 0xB8E8, symBinAddr: 0x10000E43C, symSize: 0x40 }
  - { offsetInCU: 0x18E2E, offset: 0x18E2E, size: 0x8, addend: 0x0, symName: __ZNKSt3__16vectorIiNS_9allocatorIiEEE9__end_capB7v160006Ev, symObjAddr: 0xB93C, symBinAddr: 0x10000E490, symSize: 0x28 }
  - { offsetInCU: 0x18E54, offset: 0x18E54, size: 0x8, addend: 0x0, symName: __ZNKSt3__117__compressed_pairIPiNS_9allocatorIiEEE5firstB7v160006Ev, symObjAddr: 0xB964, symBinAddr: 0x10000E4B8, symSize: 0x24 }
  - { offsetInCU: 0x18E7A, offset: 0x18E7A, size: 0x8, addend: 0x0, symName: __ZNKSt3__122__compressed_pair_elemIPiLi0ELb0EE5__getB7v160006Ev, symObjAddr: 0xB988, symBinAddr: 0x10000E4DC, symSize: 0x14 }
  - { offsetInCU: 0x18EB9, offset: 0x18EB9, size: 0x8, addend: 0x0, symName: __ZNSt3__16vectorIiNS_9allocatorIiEEE21_ConstructTransactionC1B7v160006ERS3_m, symObjAddr: 0xB99C, symBinAddr: 0x10000E4F0, symSize: 0x3C }
  - { offsetInCU: 0x18F01, offset: 0x18F01, size: 0x8, addend: 0x0, symName: __ZNSt3__16vectorIiNS_9allocatorIiEEE21_ConstructTransactionD1B7v160006Ev, symObjAddr: 0xBA10, symBinAddr: 0x10000E564, symSize: 0x2C }
  - { offsetInCU: 0x18F2B, offset: 0x18F2B, size: 0x8, addend: 0x0, symName: __ZNSt3__16vectorIiNS_9allocatorIiEEE21_ConstructTransactionC2B7v160006ERS3_m, symObjAddr: 0xBA3C, symBinAddr: 0x10000E590, symSize: 0x44 }
  - { offsetInCU: 0x18F96, offset: 0x18F96, size: 0x8, addend: 0x0, symName: __ZNKSt3__114__copy_trivialclB7v160006IKiiLi0EEENS_4pairIPT_PT0_EES5_S5_S7_, symObjAddr: 0xBC5C, symBinAddr: 0x10000E7B0, symSize: 0x48 }
  - { offsetInCU: 0x1901C, offset: 0x1901C, size: 0x8, addend: 0x0, symName: __ZNSt3__14pairIPKiS2_EC1B7v160006IS2_S2_LPv0EEEOT_OT0_, symObjAddr: 0xBDC4, symBinAddr: 0x10000E918, symSize: 0x3C }
  - { offsetInCU: 0x1907A, offset: 0x1907A, size: 0x8, addend: 0x0, symName: __ZNSt3__14pairIPKiS2_EC2B7v160006IS2_S2_LPv0EEEOT_OT0_, symObjAddr: 0xBE00, symBinAddr: 0x10000E954, symSize: 0x34 }
  - { offsetInCU: 0x190D8, offset: 0x190D8, size: 0x8, addend: 0x0, symName: __ZNSt3__118__unwrap_iter_implIPKiLb1EE8__unwrapB7v160006ES2_, symObjAddr: 0xBE34, symBinAddr: 0x10000E988, symSize: 0x24 }
  - { offsetInCU: 0x19105, offset: 0x19105, size: 0x8, addend: 0x0, symName: __ZNSt3__14pairIPKiPiEC1B7v160006IRS2_S3_LPv0EEEOT_OT0_, symObjAddr: 0xBF28, symBinAddr: 0x10000EA7C, symSize: 0x3C }
  - { offsetInCU: 0x19163, offset: 0x19163, size: 0x8, addend: 0x0, symName: __ZNSt3__14pairIPKiPiEC2B7v160006IRS2_S3_LPv0EEEOT_OT0_, symObjAddr: 0xBF64, symBinAddr: 0x10000EAB8, symSize: 0x34 }
  - { offsetInCU: 0x191C1, offset: 0x191C1, size: 0x8, addend: 0x0, symName: __ZNSt3__118__unwrap_iter_implIPiLb1EE8__unwrapB7v160006ES1_, symObjAddr: 0xBF98, symBinAddr: 0x10000EAEC, symSize: 0x24 }
  - { offsetInCU: 0x191E4, offset: 0x191E4, size: 0x8, addend: 0x0, symName: __ZNSt3__14pairIPKiPiEC1B7v160006IS2_S3_LPv0EEEOT_OT0_, symObjAddr: 0xBFBC, symBinAddr: 0x10000EB10, symSize: 0x3C }
  - { offsetInCU: 0x19242, offset: 0x19242, size: 0x8, addend: 0x0, symName: __ZNSt3__14pairIPKiPiEC2B7v160006IS2_S3_LPv0EEEOT_OT0_, symObjAddr: 0xBFF8, symBinAddr: 0x10000EB4C, symSize: 0x34 }
  - { offsetInCU: 0x192A0, offset: 0x192A0, size: 0x8, addend: 0x0, symName: __ZNSt3__118__unwrap_iter_implIPKiLb1EE8__rewrapB7v160006ES2_S2_, symObjAddr: 0xC068, symBinAddr: 0x10000EBBC, symSize: 0x50 }
  - { offsetInCU: 0x192D1, offset: 0x192D1, size: 0x8, addend: 0x0, symName: __ZNSt3__118__unwrap_iter_implIPiLb1EE8__rewrapB7v160006ES1_S1_, symObjAddr: 0xC0B8, symBinAddr: 0x10000EC0C, symSize: 0x50 }
  - { offsetInCU: 0x19302, offset: 0x19302, size: 0x8, addend: 0x0, symName: __ZNSt3__16vectorIiNS_9allocatorIiEEE21_ConstructTransactionD2B7v160006Ev, symObjAddr: 0xC108, symBinAddr: 0x10000EC5C, symSize: 0x20 }
  - { offsetInCU: 0x1932C, offset: 0x1932C, size: 0x8, addend: 0x0, symName: __ZNSt3__128__exception_guard_exceptionsINS_6vectorIiNS_9allocatorIiEEE16__destroy_vectorEED2B7v160006Ev, symObjAddr: 0xC128, symBinAddr: 0x10000EC7C, symSize: 0x50 }
  - { offsetInCU: 0x19356, offset: 0x19356, size: 0x8, addend: 0x0, symName: __ZNSt3__16vectorIiNS_9allocatorIiEEE16__destroy_vectorclB7v160006Ev, symObjAddr: 0xC178, symBinAddr: 0x10000ECCC, symSize: 0x9C }
  - { offsetInCU: 0x1937C, offset: 0x1937C, size: 0x8, addend: 0x0, symName: __ZNKSt3__16vectorIiNS_9allocatorIiEEE17__annotate_deleteB7v160006Ev, symObjAddr: 0xC214, symBinAddr: 0x10000ED68, symSize: 0xB8 }
  - { offsetInCU: 0x193A2, offset: 0x193A2, size: 0x8, addend: 0x0, symName: __ZNSt3__16vectorIiNS_9allocatorIiEEE7__clearB7v160006Ev, symObjAddr: 0xC2DC, symBinAddr: 0x10000EE30, symSize: 0x28 }
  - { offsetInCU: 0x193C8, offset: 0x193C8, size: 0x8, addend: 0x0, symName: __ZNSt3__116allocator_traitsINS_9allocatorIiEEE10deallocateB7v160006ERS2_Pim, symObjAddr: 0xC304, symBinAddr: 0x10000EE58, symSize: 0x34 }
  - { offsetInCU: 0x1940A, offset: 0x1940A, size: 0x8, addend: 0x0, symName: __ZNSt3__16vectorIiNS_9allocatorIiEEE22__base_destruct_at_endB7v160006EPi, symObjAddr: 0xC338, symBinAddr: 0x10000EE8C, symSize: 0x8C }
  - { offsetInCU: 0x1944E, offset: 0x1944E, size: 0x8, addend: 0x0, symName: __ZNSt3__116allocator_traitsINS_9allocatorIiEEE7destroyB7v160006IivEEvRS2_PT_, symObjAddr: 0xC3C4, symBinAddr: 0x10000EF18, symSize: 0x2C }
  - { offsetInCU: 0x1948B, offset: 0x1948B, size: 0x8, addend: 0x0, symName: __ZNSt3__19allocatorIiE7destroyB7v160006EPi, symObjAddr: 0xC3F0, symBinAddr: 0x10000EF44, symSize: 0x14 }
  - { offsetInCU: 0x194BF, offset: 0x194BF, size: 0x8, addend: 0x0, symName: __ZNSt3__19allocatorIiE10deallocateB7v160006EPim, symObjAddr: 0xC404, symBinAddr: 0x10000EF58, symSize: 0x40 }
  - { offsetInCU: 0x19501, offset: 0x19501, size: 0x8, addend: 0x0, symName: __ZNSt3__16vectorIiNS_9allocatorIiEEED2B7v160006Ev, symObjAddr: 0xC444, symBinAddr: 0x10000EF98, symSize: 0x44 }
...
